L251 LINKER/LOCATER V4.66.93.0                                                          03/11/2025  16:09:00  PAGE 1


L251 LINKER/LOCATER V4.66.93.0, INVOKED BY:
C:\KEIL_V5\C251\BIN\L251.EXE ..\obj\gui.obj, ..\obj\main.obj, ..\obj\test.obj, ..\obj\Ai.obj, ..\obj\canvas.obj, ..\obj\
>> expression.obj, ..\obj\sys.obj, ..\obj\LCD.obj, ..\obj\touch.obj, ..\obj\tm_layers.obj, ..\obj\tm_model.obj, ..\obj\t
>> m_stat.obj TO ..\obj\ceshi PRINT (.\ceshi.map) CASE REMOVEUNUSED CLASSES (EDATA (0X0-0X7FF), HDATA (0X0-0X7FF))


CPU MODE:     251 SOURCE MODE
INTR FRAME:   2 BYTES SAVED ON INTERRUPT
MEMORY MODEL: XSMALL WITH FLOATING POINT ARITHMETIC


INPUT MODULES INCLUDED:
  ..\obj\gui.obj (gui)
         COMMENT TYPE 0: C251 V5.60.0
  ..\obj\main.obj (main)
         COMMENT TYPE 0: C251 V5.60.0
  ..\obj\test.obj (test)
         COMMENT TYPE 0: C251 V5.60.0
  ..\obj\Ai.obj (Ai)
         COMMENT TYPE 0: C251 V5.60.0
  ..\obj\canvas.obj (canvas)
         COMMENT TYPE 0: C251 V5.60.0
  ..\obj\expression.obj (expression)
         COMMENT TYPE 0: C251 V5.60.0
  ..\obj\sys.obj (sys)
         COMMENT TYPE 0: C251 V5.60.0
  ..\obj\LCD.obj (LCD)
         COMMENT TYPE 0: C251 V5.60.0
  ..\obj\touch.obj (touch)
         COMMENT TYPE 0: C251 V5.60.0
  ..\obj\tm_layers.obj (tm_layers)
         COMMENT TYPE 0: C251 V5.60.0
  ..\obj\tm_model.obj (tm_model)
         COMMENT TYPE 0: C251 V5.60.0
  ..\obj\tm_stat.obj (tm_stat)
         COMMENT TYPE 0: C251 V5.60.0
  C:\KEIL_V5\C251\LIB\C2SFPXS.LIB (?C?FPADD)
         COMMENT TYPE 0: A251 V4.69.6.0
  C:\KEIL_V5\C251\LIB\C2SFPXS.LIB (?C?FPMUL)
         COMMENT TYPE 0: A251 V4.69.6.0
  C:\KEIL_V5\C251\LIB\C2SFPXS.LIB (?C?FPDIV)
         COMMENT TYPE 0: A251 V4.69.6.0
  C:\KEIL_V5\C251\LIB\C2SFPXS.LIB (?C?FPCMP)
         COMMENT TYPE 0: A251 V4.69.6.0
  C:\KEIL_V5\C251\LIB\C2SFPXS.LIB (?C?FCAST)
         COMMENT TYPE 0: A251 V4.69.6.0
  C:\KEIL_V5\C251\LIB\C2SFPXS.LIB (?C?CASTF)
         COMMENT TYPE 0: A251 V4.69.6.0
  C:\KEIL_V5\C251\LIB\C2SFPXS.LIB (PRINTF)
         COMMENT TYPE 0: A251 V4.69.6.0
  C:\KEIL_V5\C251\LIB\C2SFPXS.LIB (SPRINTF)
         COMMENT TYPE 0: A251 V4.69.6.0
  C:\KEIL_V5\C251\LIB\C2SFPXS.LIB (EXP?_)
         COMMENT TYPE 0: A251 V4.69.6.0
  C:\KEIL_V5\C251\LIB\C2SFPXS.LIB (?C?FPGETOPN)
         COMMENT TYPE 0: A251 V4.69.6.0
  C:\KEIL_V5\C251\LIB\C2SFPXS.LIB (?C?PRNFMT)
         COMMENT TYPE 0: A251 V4.69.6.0
  C:\KEIL_V5\C251\LIB\C2SFPXS.LIB (?C?FPSERIES)
         COMMENT TYPE 0: A251 V4.69.6.0
  C:\KEIL_V5\C251\LIB\C2SFPXS.LIB (?C?FPCONVERT)
         COMMENT TYPE 0: A251 V4.69.6.0
  C:\KEIL_V5\C251\LIB\C2SFPXS.LIB (?C?FTNPWR)
         COMMENT TYPE 0: A251 V4.69.6.0
  C:\KEIL_V5\C251\LIB\C2SXS.LIB (?C_START)
         COMMENT TYPE 0: A251 V4.69.6.0
L251 LINKER/LOCATER V4.66.93.0                                                        03/11/2025  16:09:00  PAGE 2


  C:\KEIL_V5\C251\LIB\C2SXS.LIB (?C?INITEDATA)
         COMMENT TYPE 0: A251 V4.69.6.0
  C:\KEIL_V5\C251\LIB\C2SXS.LIB (?C?INITHDATA)
         COMMENT TYPE 0: A251 V4.69.6.0
  C:\KEIL_V5\C251\LIB\C2SXS.LIB (?C?SIDIV)
         COMMENT TYPE 0: A251 V4.69.6.0
  C:\KEIL_V5\C251\LIB\C2SXS.LIB (?C?LMUL)
         COMMENT TYPE 0: A251 V4.69.6.0
  C:\KEIL_V5\C251\LIB\C2SXS.LIB (?C?LIMUL)
         COMMENT TYPE 0: A251 V4.69.6.0
  C:\KEIL_V5\C251\LIB\C2SXS.LIB (?C?ULDIV)
         COMMENT TYPE 0: A251 V4.69.6.0
  C:\KEIL_V5\C251\LIB\C2SXS.LIB (?C?SLDIV)
         COMMENT TYPE 0: A251 V4.69.6.0
  C:\KEIL_V5\C251\LIB\C2SXS.LIB (?C?BMOVENP)
         COMMENT TYPE 0: A251 V4.69.6.0
  C:\KEIL_V5\C251\LIB\C2SXS.LIB (PUTCHAR)
         COMMENT TYPE 0: A251 V4.69.6.0
  C:\KEIL_V5\C251\LIB\C2SXS.LIB (STRLEN)
         COMMENT TYPE 0: C251 V5.58.7
  C:\KEIL_V5\C251\LIB\C2SXS.LIB (memcpy)
         COMMENT TYPE 0: C251 V5.58.7
  C:\KEIL_V5\C251\LIB\C2SXS.LIB (memset)
         COMMENT TYPE 0: C251 V5.58.7
  C:\KEIL_V5\C251\LIB\C2SXS.LIB (malloc)
         COMMENT TYPE 0: C251 V5.58.7
  C:\KEIL_V5\C251\LIB\C2SXS.LIB (free)
         COMMENT TYPE 0: C251 V5.58.7
  C:\KEIL_V5\C251\LIB\C2SXS.LIB (?C?INITEDATA_END)
         COMMENT TYPE 0: A251 V4.69.6.0
  C:\KEIL_V5\C251\LIB\C2SXS.LIB (?C?INITHDATA_END)
         COMMENT TYPE 0: A251 V4.69.6.0
  C:\KEIL_V5\C251\LIB\C2SXS.LIB (mdefine)
         COMMENT TYPE 0: C251 V5.58.7


ACTIVE MEMORY CLASSES OF MODULE:  ..\obj\ceshi (gui)

BASE        START       END         USED      MEMORY CLASS
==========================================================
000000H     000000H     0007FFH     000256H   EDATA
000000H     000000H     0007FFH     000004H   HDATA
FF0000H     FF0000H     FFFFFFH     005495H   CODE
000000H     FF0000H     FFFFFFH     00155DH   HCONST
010000H     010000H     01FFFFH     00156BH   XDATA
FF0000H     FF0000H     FFFFFFH     000004H   CONST
000000H     000000H     00007FH     000008H   DATA


MEMORY MAP OF MODULE:  ..\obj\ceshi (gui)


START     STOP      LENGTH    ALIGN  RELOC    MEMORY CLASS   SEGMENT NAME
=========================================================================
000000H   000007H   000008H   ---    AT..     DATA           "REG BANK 0"
000008H   0000E2H   0000DBH   BYTE   UNIT     EDATA          _EDATA_GROUP_
0000E3H   000120H   00003EH   BYTE   UNIT     EDATA          ?ED?AI
000121H   00013AH   00001AH   BYTE   UNIT     EDATA          ?ED?TEST
00013BH   00014DH   000013H   BYTE   UNIT     EDATA          ?ED?LCD
00014EH   00015DH   000010H   BYTE   UNIT     EDATA          ?ED?TOUCH
00015EH   00025DH   000100H   BYTE   UNIT     EDATA          ?STACK
00025EH   000261H   000004H   BYTE   INSEG    HDATA          ?FD?MDEFINE
000262H   00FFFFH   00FD9EH   ---    ---      **GAP**
010000H   01092FH   000930H   BYTE   INSEG    XDATA          ?XD?AI
010930H   0110AFH   000780H   BYTE   INSEG    XDATA          ?XD?CANVAS
L251 LINKER/LOCATER V4.66.93.0                                                        03/11/2025  16:09:00  PAGE 3


0110B0H   011527H   000478H   BYTE   INSEG    XDATA          ?XD?TM_LAYERS
011528H   01156AH   000043H   BYTE   INSEG    XDATA          ?XD?TEST
01156BH   FEFFFFH   FDEA95H   ---    ---      **GAP**
FF0000H   FF0002H   000003H   ---    OFFS..   CODE           ?CO?start251?4
FF0003H   FF005EH   00005CH   BYTE   INSEG    CODE           ?PR?LCD_SETWINDOWS?LCD
FF005FH   FF0065H   000007H   BYTE   INSEG    CODE           ?PR?LCD_WRITERAM_PREPARE?LCD
FF0066H   FF0068H   000003H   BYTE   INSEG    CODE           ?PR?LAYER_CB?AI
FF0069H   FF006AH   000002H   ---    ---      **GAP**
FF006BH   FF006DH   000003H   ---    OFFS..   CODE           ?PR?IV?13
FF006EH   FF16F9H   00168CH   BYTE   UNIT     CODE           ?CO?GUI
FF16FAH   FF21B4H   000ABBH   BYTE   UNIT     CODE           ?C?LIB_CODE
FF21B5H   FF2A9FH   0008EBH   BYTE   INSEG    CODE           ?PR?TML_CONV2D_DWCONV2D?TM_LAYERS
FF2AA0H   FF2F66H   0004C7H   BYTE   INSEG    CODE           ?PR?TM_RUN?TM_MODEL
FF2F67H   FF31E0H   00027AH   BYTE   INSEG    CODE           ?PR?LCD_INIT?LCD
FF31E1H   FF3437H   000257H   BYTE   INSEG    CODE           ?PR?TM_DOT_PROD_PACK2?TM_LAYERS
FF3438H   FF368CH   000255H   BYTE   INSEG    CODE           ?PR?EXPRESSION_CALC?EXPRESSION
FF368DH   FF3886H   0001FAH   BYTE   INSEG    CODE           ?PR?AITEST?TEST
FF3887H   FF3A37H   0001B1H   BYTE   INSEG    CODE           ?PR?TML_SOFTMAX?TM_LAYERS
FF3A38H   FF3BD8H   0001A1H   BYTE   INSEG    CODE           ?PR?LCD_SHOWCHAR?GUI
FF3BD9H   FF3D78H   0001A0H   BYTE   INSEG    CODE           ?PR?CANVAS_PROCESS_CHARACTER?CANVAS
FF3D79H   FF3F08H   000190H   BYTE   INSEG    CODE           ?PR?COUNTRESULT?TEST
FF3F09H   FF408EH   000186H   BYTE   INSEG    CODE           ?PR?SHOW_STR?GUI
FF408FH   FF4203H   000175H   BYTE   INSEG    CODE           ?PR?TM_DOT_PROD?TM_LAYERS
FF4204H   FF4368H   000165H   BYTE   INSEG    CODE           ?PR?GUI_DRAWFONT32?GUI
FF4369H   FF44CDH   000165H   BYTE   INSEG    CODE           ?PR?GUI_DRAWFONT24?GUI
FF44CEH   FF4632H   000165H   BYTE   INSEG    CODE           ?PR?GUI_DRAWFONT16?GUI
FF4633H   FF4726H   0000F4H   BYTE   INSEG    CODE           ?PR?TM_LOAD?TM_MODEL
FF4727H   FF47FFH   0000D9H   BYTE   INSEG    CODE           ?PR?TM_PREPROCESS?TM_MODEL
FF4800H   FF48CCH   0000CDH   BYTE   INSEG    CODE           ?PR?TM_DOT_PROD_3X3X1?TM_LAYERS
FF48CDH   FF4996H   0000CAH   BYTE   INSEG    CODE           ?PR?TML_FC?TM_LAYERS
FF4997H   FF4A3DH   0000A7H   BYTE   INSEG    CODE           ?PR?READ_ADS2?TOUCH
FF4A3EH   FF4AE1H   0000A4H   BYTE   INSEG    CODE           ?PR?TML_GAP?TM_LAYERS
FF4AE2H   FF4B81H   0000A0H   BYTE   INSEG    CODE           ?PR?CONVERT_POS?TOUCH
FF4B82H   FF4C1EH   00009DH   BYTE   INSEG    CODE           ?PR?LCD_DIRECTION?LCD
FF4C1FH   FF4CB2H   000094H   BYTE   INSEG    CODE           ?PR?ADS_READ_XY?TOUCH
FF4CB3H   FF4D43H   000091H   BYTE   INSEG    CODE           ?PR?AI_INIT?AI
FF4D44H   FF4DCDH   00008AH   BYTE   INSEG    CODE           ?PR?DRAWTESTPAGE?TEST
FF4DCEH   FF4E46H   000079H   BYTE   INSEG    CODE           ?PR?L_POSTPROCESS_SUM?TM_LAYERS
FF4E47H   FF4EB8H   000072H   BYTE   INSEG    CODE           ?PR?LCD_SHOWSTRING?GUI
FF4EB9H   FF4ECBH   000013H   BYTE   UNIT     CODE           ?C_C51STARTUP
FF4ECCH   FF4F25H   00005AH   BYTE   UNIT     CODE           ?C_C51STARTUP?2
FF4F26H   FF4F28H   000003H   BYTE   UNIT     CODE           ?C_C51STARTUP?3
FF4F29H   FF4F93H   00006BH   BYTE   INSEG    CODE           ?PR?EXPRESSION_TO_STRING?EXPRESSION
FF4F94H   FF4FECH   000059H   BYTE   INSEG    CODE           ?PR?MALLOC?MALLOC
FF4FEDH   FF5044H   000058H   BYTE   INSEG    CODE           ?PR?LCD_FILL?GUI
FF5045H   FF5097H   000053H   BYTE   INSEG    CODE           ?PR?GUI_STRCENTER?GUI
FF5098H   FF50DEH   000047H   BYTE   INSEG    CODE           ?PR?PARSE_OUTPUT?AI
FF50DFH   FF5123H   000045H   BYTE   INSEG    CODE           ?PR?LCD_CLEAR?LCD
FF5124H   FF5161H   00003EH   BYTE   INSEG    CODE           ?PR?PADDINGSTRING?TEST
FF5162H   FF519CH   00003BH   BYTE   INSEG    CODE           ?PR?POP?EXPRESSION
FF519DH   FF51D4H   000038H   BYTE   INSEG    CODE           ?PR?READ_ADS?TOUCH
FF51D5H   FF5209H   000035H   BYTE   INSEG    CODE           ?PR?AI_RUN?AI
FF520AH   FF523AH   000031H   BYTE   INSEG    CODE           ?PR?PUSH?EXPRESSION
FF523BH   FF5267H   00002DH   BYTE   INSEG    CODE           ?PR?TP_DRAW_BIG_POINT?TOUCH
FF5268H   FF5293H   00002CH   BYTE   INSEG    CODE           ?PR?LCD_WR_REG?LCD
FF5294H   FF52BFH   00002CH   BYTE   INSEG    CODE           ?PR?LCD_WR_DATA?LCD
FF52C0H   FF52E4H   000025H   BYTE   INSEG    CODE           ?PR?LCD_SET_GPIO?LCD
FF52E5H   FF5309H   000025H   BYTE   INSEG    CODE           ?PR?MEMCPY?_?MEMCPY
FF530AH   FF532CH   000023H   BYTE   INSEG    CODE           ?PR?PEEK?EXPRESSION
FF532DH   FF534DH   000021H   BYTE   INSEG    CODE           ?PR?GETPRIORITY?EXPRESSION
FF534EH   FF536DH   000020H   BYTE   INSEG    CODE           ?PR?LCM_CONFIG?LCD
FF536EH   FF538BH   00001EH   BYTE   INSEG    CODE           ?PR?WRITECHARTO7843?TOUCH
FF538CH   FF53A7H   00001CH   BYTE   INSEG    CODE           ?PR?READFROMCHARFROM7843?TOUCH
FF53A8H   FF53C2H   00001BH   BYTE   INSEG    CODE           ?PR?LCM_INTERRUPT?LCD
FF53C3H   FF53DCH   00001AH   BYTE   INSEG    CODE           ?PR?MEMSET?_?MEMSET
L251 LINKER/LOCATER V4.66.93.0                                                        03/11/2025  16:09:00  PAGE 4


FF53DDH   FF53F5H   000019H   BYTE   INSEG    CODE           ?PR?LCDRESET?LCD
FF53F6H   FF540CH   000017H   BYTE   INSEG    CODE           ?PR?DELAY_MS?SYS
FF540DH   FF5423H   000017H   BYTE   INSEG    CODE           ?PR?ADS_READ_AD?TOUCH
FF5424H   FF5437H   000014H   BYTE   INSEG    CODE           ?PR?MAIN?MAIN
FF5438H   FF5448H   000011H   BYTE   INSEG    CODE           ?PR?LCD_WR_DATA_16BIT?LCD
FF5449H   FF5458H   000010H   BYTE   INSEG    CODE           ?PR?CLEAN_INPUT_IMAGE?AI
FF5459H   FF5468H   000010H   BYTE   INSEG    CODE           ?PR?CLEAN_CANVAS?CANVAS
FF5469H   FF5477H   00000FH   BYTE   INSEG    CODE           ?PR?LCD_WRITEREG?LCD
FF5478H   FF5485H   00000EH   BYTE   INSEG    CODE           ?PR?LCD_DRAWPOINT?LCD
FF5486H   FF5493H   00000EH   BYTE   INSEG    CODE           ?PR?STRLEN?_?STRLEN
FF5494H   FF5496H   000003H   BYTE   INSEG    CODE           ?PR?TML_RESHAPE?TM_LAYERS
FF5497H   FF549AH   000004H   BYTE   UNIT     CONST          ?CO?PRINTF
FF549BH   FF5F88H   000AEEH   BYTE   UNIT     HCONST         ?C_INITHDATA
FF5F89H   FF693FH   0009B7H   BYTE   UNIT     HCONST         ?HC?AI
FF6940H   FF6987H   000048H   BYTE   UNIT     HCONST         ?C_INITEDATA
FF6988H   FF69BFH   000038H   BYTE   UNIT     HCONST         ?HC?TOUCH
FF69C0H   FF69E6H   000027H   BYTE   UNIT     HCONST         ?HC?TEST
FF69E7H   FF69F2H   00000CH   BYTE   UNIT     HCONST         ?HC?EXPRESSION
FF69F3H   FF69F7H   000005H   BYTE   UNIT     HCONST         ?HC?LCD

* * * * * * * * *   R E M O V E D     S E G M E N T S   * * * * * * * *
   *DEL*:           0000A9H   BYTE   INSEG    CODE           ?PR?_DRAW_CIRCLE_8?GUI
   *DEL*:           0000D1H   BYTE   INSEG    CODE           ?PR?LCD_SHOWNUM?GUI
   *DEL*:           000125H   BYTE   INSEG    CODE           ?PR?GUI_CIRCLE?GUI
   *DEL*:           00001AH   BYTE   INSEG    CODE           ?PR?MYPOW?GUI
   *DEL*:           0000FAH   BYTE   INSEG    CODE           ?PR?LCD_DRAWLINE?GUI
   *DEL*:           00000FH   BYTE   INSEG    CODE           ?PR?GUI_DRAWPOINT?GUI
   *DEL*:           000010H   BYTE   UNIT     EDATA          ?ED?LCD_DRAWLINE?GUI
   *DEL*:           000009H   BYTE   UNIT     EDATA          ?ED?LCD_SHOWNUM?GUI
   *DEL*:           000006H   BYTE   UNIT     EDATA          ?ED?_DRAW_CIRCLE_8?GUI
   *DEL*:           00000CH   BYTE   UNIT     EDATA          ?ED?GUI_CIRCLE?GUI
   *DEL*:           00000DH   BYTE   INSEG    CODE           ?PR?DELAY_US?SYS
   *DEL*:           000039H   BYTE   INSEG    CODE           ?PR?LCD_READ_ID?LCD
   *DEL*:           000027H   BYTE   INSEG    CODE           ?PR?COLOR_TO_565?LCD
   *DEL*:           000020H   BYTE   INSEG    CODE           ?PR?LCD_READPOINT?LCD
   *DEL*:           000030H   BYTE   INSEG    CODE           ?PR?LCD_RD_DATA?LCD
   *DEL*:           000007H   BYTE   INSEG    CODE           ?PR?LCD_READRAM_PREPARE?LCD
   *DEL*:           00002AH   BYTE   INSEG    CODE           ?PR?LCD_READREG?LCD
   *DEL*:           000007H   BYTE   INSEG    CODE           ?PR?LCD_SETCURSOR?LCD
   *DEL*:           000023H   BYTE   INSEG    CODE           ?PR?LCD_RD_DATA_16BIT?LCD
   *DEL*:           000002H   BYTE   UNIT     EDATA          ?ED?LCD_READREG?LCD
   *DEL*:           000005H   BYTE   UNIT     EDATA          ?ED?LCD_READ_ID?LCD
   *DEL*:           000005H   BYTE   INSEG    CODE           ?PR?TPSTATE?TOUCH
   *DEL*:           000009H   BYTE   INSEG    CODE           ?PR?SPISTAR?TOUCH
   *DEL*:           0004AFH   BYTE   INSEG    CODE           ?PR?TOUCH_ADJUST?TOUCH
   *DEL*:           000045H   BYTE   INSEG    CODE           ?PR?READ_TP_ONCE?TOUCH
   *DEL*:           000076H   BYTE   INSEG    CODE           ?PR?DROW_TOUCH_POINT?TOUCH
   *DEL*:           000004H   BYTE   UNIT     EDATA          ?ED?READ_TP_ONCE?TOUCH
   *DEL*:           000036H   BYTE   UNIT     EDATA          ?ED?TOUCH_ADJUST?TOUCH
   *DEL*:           000111H   BYTE   INSEG    CODE           ?PR?TM_DOT_PROD_GAP_3X3X1?TM_LAYERS
   *DEL*:           000008H   BYTE   UNIT     EDATA          ?ED?TM_DOT_PROD_GAP_3X3X1?TM_LAYERS
   *DEL*:           00002BH   BYTE   INSEG    CODE           ?PR?TM_UNLOAD?TM_MODEL
   *DEL*:           0000E7H   BYTE   INSEG    CODE           ?PR?FREE?FREE



OVERLAY MAP OF MODULE:   ..\obj\ceshi (gui)


FUNCTION/MODULE                      EDATA_GROUP
--> CALLED FUNCTION/MODULE           START  STOP
================================================
LCM_Interrupt/LCD                    ----- -----

*** NEW ROOT ***********************
L251 LINKER/LOCATER V4.66.93.0                                                        03/11/2025  16:09:00  PAGE 5



?C_C51STARTUP                        ----- -----

*** NEW ROOT ***********************

?C_C51STARTUP?3                      ----- -----
  +--> main/main

main/main                            ----- -----
  +--> LCD_Init/LCD
  +--> Ai_init/Ai
  +--> aiTest/test

LCD_Init/LCD                         ----- -----
  +--> LCD_Set_GPIO/LCD
  +--> LCM_Config/LCD
  +--> LCDReset/LCD
  +--> LCD_WR_REG/LCD
  +--> LCD_WR_DATA/LCD
  +--> delay_ms/sys
  +--> LCD_direction/LCD

LCD_Set_GPIO/LCD                     ----- -----

LCM_Config/LCD                       ----- -----

LCDReset/LCD                         ----- -----
  +--> delay_ms/sys

delay_ms/sys                         ----- -----

LCD_WR_REG/LCD                       ----- -----

LCD_WR_DATA/LCD                      ----- -----

LCD_direction/LCD                    ----- -----
  +--> LCD_WriteReg/LCD

LCD_WriteReg/LCD                     ----- -----
  +--> LCD_WR_REG/LCD
  +--> LCD_WR_DATA/LCD

Ai_init/Ai                           ----- -----
  +--> layer_cb/Ai
  +--> tm_load/tm_model
  +--> PRINTF/PRINTF

layer_cb/Ai                          ----- -----

tm_load/tm_model                     0008H 0011H
  +--> malloc/malloc
  +--> memcpy?_/memcpy

malloc/malloc                        ----- -----

memcpy?_/memcpy                      ----- -----

PRINTF/PRINTF                        00B8H 00DFH
  +--> OUT/PRINTF

OUT/PRINTF                           ----- -----
  +--> PUTCH/PRINTF

PUTCH/PRINTF                         ----- -----
  +--> PUTCHAR/PUTCHAR
L251 LINKER/LOCATER V4.66.93.0                                                        03/11/2025  16:09:00  PAGE 6


  +--> OUT/PRINTF

PUTCHAR/PUTCHAR                      ----- -----

aiTest/test                          ----- -----
  +--> DrawTestPage/test
  +--> LCD_ShowString/gui
  +--> LCD_Fill/gui
  +--> Convert_Pos/touch
  +--> clean_canvas/canvas
  +--> TP_Draw_Big_Point/touch
  +--> countResult/test
  +--> delay_ms/sys

DrawTestPage/test                    ----- -----
  +--> LCD_Clear/LCD
  +--> LCD_Fill/gui
  +--> Gui_StrCenter/gui

LCD_Clear/LCD                        0008H 0009H
  +--> LCD_SetWindows/LCD
  +--> LCD_WR_DATA_16Bit/LCD

LCD_SetWindows/LCD                   0030H 0033H
  +--> LCD_WR_REG/LCD
  +--> LCD_WR_DATA/LCD
  +--> LCD_WriteRAM_Prepare/LCD

LCD_WriteRAM_Prepare/LCD             ----- -----
  +--> LCD_WR_REG/LCD

LCD_WR_DATA_16Bit/LCD                ----- -----
  +--> LCD_WR_DATA/LCD

LCD_Fill/gui                         0008H 000DH
  +--> LCD_SetWindows/LCD
  +--> LCD_WR_DATA_16Bit/LCD

Gui_StrCenter/gui                    0008H 0013H
  +--> strlen?_/STRLEN
  +--> Show_Str/gui

strlen?_/STRLEN                      ----- -----

Show_Str/gui                         0014H 0020H
  +--> LCD_ShowChar/gui
  +--> GUI_DrawFont32/gui
  +--> GUI_DrawFont24/gui
  +--> GUI_DrawFont16/gui

LCD_ShowChar/gui                     0021H 002CH
  +--> LCD_SetWindows/LCD
  +--> LCD_WR_DATA_16Bit/LCD
  +--> LCD_DrawPoint/LCD

LCD_DrawPoint/LCD                    ----- -----
  +--> LCD_SetWindows/LCD
  +--> LCD_WR_DATA_16Bit/LCD

GUI_DrawFont32/gui                   0021H 002FH
  +--> LCD_SetWindows/LCD
  +--> LCD_WR_DATA_16Bit/LCD
  +--> LCD_DrawPoint/LCD

GUI_DrawFont24/gui                   0021H 002FH
L251 LINKER/LOCATER V4.66.93.0                                                        03/11/2025  16:09:00  PAGE 7


  +--> LCD_SetWindows/LCD
  +--> LCD_WR_DATA_16Bit/LCD
  +--> LCD_DrawPoint/LCD

GUI_DrawFont16/gui                   0021H 002FH
  +--> LCD_SetWindows/LCD
  +--> LCD_WR_DATA_16Bit/LCD
  +--> LCD_DrawPoint/LCD

LCD_ShowString/gui                   0019H 001EH
  +--> LCD_ShowChar/gui

Convert_Pos/touch                    ----- -----
  +--> Read_ADS2/touch
  +--> ?C?ULIDIV/?C?ULDIV

Read_ADS2/touch                      0008H 0013H
  +--> Read_ADS/touch

Read_ADS/touch                       0014H 0019H
  +--> ADS_Read_XY/touch

ADS_Read_XY/touch                    001AH 003BH
  +--> ADS_Read_AD/touch

ADS_Read_AD/touch                    ----- -----
  +--> WriteCharTo7843/touch
  +--> ReadFromCharFrom7843/touch

WriteCharTo7843/touch                ----- -----

ReadFromCharFrom7843/touch           ----- -----

?C?ULIDIV/?C?ULDIV                   ----- -----

clean_canvas/canvas                  ----- -----
  +--> memset?_/memset

memset?_/memset                      ----- -----

TP_Draw_Big_Point/touch              ----- -----
  +--> LCD_DrawPoint/LCD

countResult/test                     0008H 0018H
  +--> canvas_process_character/canvas
  +--> Ai_run/Ai
  +--> expression_calc/expression
  +--> SPRINTF/SPRINTF
  +--> paddingString/test
  +--> LCD_ShowString/gui
  +--> expression_to_string/expression
  +--> clean_canvas/canvas

canvas_process_character/canvas      0019H 0028H
  +--> clean_input_image/Ai

clean_input_image/Ai                 ----- -----
  +--> memset?_/memset

Ai_run/Ai                            ----- -----
  +--> tm_preprocess/tm_model
  +--> tm_run/tm_model
  +--> parse_output/Ai

tm_preprocess/tm_model               0019H 0020H
L251 LINKER/LOCATER V4.66.93.0                                                        03/11/2025  16:09:00  PAGE 8



tm_run/tm_model                      0019H 0044H
  +--> memcpy?_/memcpy
  +--> tml_conv2d_dwconv2d/tm_layers
  +--> tml_gap/tm_layers
  +--> tml_fc/tm_layers
  +--> tml_softmax/tm_layers
  +--> tml_reshape/tm_layers

tml_conv2d_dwconv2d/tm_layers        0045H 00D0H
  +--> tm_dot_prod_pack2/tm_layers
  +--> l_postprocess_sum/tm_layers
  +--> tm_dot_prod/tm_layers
  +--> memset?_/memset
  +--> tm_dot_prod_3x3x1/tm_layers

tm_dot_prod_pack2/tm_layers          00D1H 00E0H

l_postprocess_sum/tm_layers          00D1H 00E2H

tm_dot_prod/tm_layers                00D1H 00D8H

tm_dot_prod_3x3x1/tm_layers          00D1H 00D4H

tml_gap/tm_layers                    0045H 0058H
  +--> ?C?SLDIV/?C?SLDIV

?C?SLDIV/?C?SLDIV                    ----- -----
  +--> ?C?ULIDIV/?C?ULDIV

tml_fc/tm_layers                     0045H 006EH
  +--> tm_dot_prod/tm_layers

tml_softmax/tm_layers                0045H 0066H

tml_reshape/tm_layers                0045H 0054H

parse_output/Ai                      0019H 0024H

expression_calc/expression           0019H 00B7H
  +--> push/expression
  +--> pop/expression
  +--> peek/expression
  +--> getPriority/expression
  +--> PRINTF/PRINTF

push/expression                      ----- -----

pop/expression                       ----- -----

peek/expression                      ----- -----

getPriority/expression               ----- -----

SPRINTF/SPRINTF                      0019H 0040H
  +--> OUT/SPRINTF

OUT/SPRINTF                          ----- -----
  +--> PUTCH/SPRINTF

PUTCH/SPRINTF                        ----- -----

paddingString/test                   0019H 001AH
  +--> strlen?_/STRLEN

L251 LINKER/LOCATER V4.66.93.0                                                        03/11/2025  16:09:00  PAGE 9


expression_to_string/expression      ----- -----

*** NEW ROOT ***********************

?C_C51STARTUP?2                      ----- -----



PUBLIC SYMBOLS OF MODULE:  ..\obj\ceshi (gui)


      VALUE       CLASS    TYPE      PUBLIC SYMBOL NAME
      =================================================
*DEL*:1FFFFFFCH   EDATA    BYTE      ?_draw_circle_8?BYTE
      00FF2180H   CODE     ---       ?C?BMOVENP
      00FF217EH   CODE     ---       ?C?BMOVENP8
      00FF195CH   CODE     NEAR LAB  ?C?CASTF
      000000FFH   NUMBER   ---       ?C?CODESEG
      00FF1929H   CODE     NEAR LAB  ?C?FCASTC
      00FF1924H   CODE     NEAR LAB  ?C?FCASTI
      00FF191FH   CODE     NEAR LAB  ?C?FCASTL
      00FF1F0EH   CODE     ---       ?C?FP2SERIES
      00FF1700H   CODE     ---       ?C?FPADD
      00FF18DBH   CODE     ---       ?C?FPCMP
      00FF18D9H   CODE     ---       ?C?FPCMP3
      00FF1F49H   CODE     ---       ?C?FPCONVERT
      00FF1858H   CODE     ---       ?C?FPDIV
      00FF1A81H   CODE     ---       ?C?FPGETOPN2
      00FF17B8H   CODE     ---       ?C?FPMUL
      00FF1ABEH   CODE     ---       ?C?FPNANRESULT
      00FF1AC6H   CODE     ---       ?C?FPOVERFLOW
      00FF1A9AH   CODE     ---       ?C?FPRESULT
      00FF1AB0H   CODE     ---       ?C?FPRESULT2
      00FF2001H   CODE     ---       ?C?FPROUND
      00FF1F17H   CODE     ---       ?C?FPSERIES
      00FF16FDH   CODE     ---       ?C?FPSUB
      00FF1AC3H   CODE     ---       ?C?FPUNDERFLOW
      00FF2074H   CODE     ---       ?C?FTNPWR
      00FF4ECCH   CODE     ---       ?C?INITEDATA
      00FF6986H   HCONST   WORD      ?C?INITEDATA_END
      00FF4EF5H   CODE     ---       ?C?INITHDATA
      00FF5F87H   HCONST   WORD      ?C?INITHDATA_END
      00FF20EEH   CODE     ---       ?C?LIMUL
      00FF20DDH   CODE     ---       ?C?LMUL
      00FF1AFFH   CODE     ---       ?C?PRNFMT
      00FF20ABH   CODE     ---       ?C?SIDIV
      00FF214AH   CODE     NEAR LAB  ?C?SLDIV
      00FF0000H   CODE     ---       ?C?STARTUP
      00FF20F9H   CODE     NEAR LAB  ?C?ULDIV
      00FF20F7H   CODE     NEAR LAB  ?C?ULIDIV
      00000001H   NUMBER   ---       ?C?XDATASEG
      00FF0000H   CODE     ---       ?C_STARTUP
*DEL*:1FFFFFFAH   EDATA    BYTE      ?gui_circle?BYTE
      0000001DH   EDATA    BYTE      ?GUI_DrawFont16?BYTE
      0000001DH   EDATA    BYTE      ?GUI_DrawFont24?BYTE
      0000001DH   EDATA    BYTE      ?GUI_DrawFont32?BYTE
      00000006H   EDATA    BYTE      ?Gui_StrCenter?BYTE
      000000C9H   EDATA    BYTE      ?l_postprocess_sum?BYTE
      00000000H   EDATA    BYTE      ?LCD_Fill?BYTE
      0000001DH   EDATA    BYTE      ?LCD_ShowChar?BYTE
*DEL*:1FFFFFFCH   EDATA    BYTE      ?LCD_ShowNum?BYTE
      00000015H   EDATA    BYTE      ?LCD_ShowString?BYTE
      000000E0H   EDATA    ---       ?printf?BYTE
      00000010H   EDATA    BYTE      ?Show_Str?BYTE
      00000041H   EDATA    ---       ?sprintf?BYTE
L251 LINKER/LOCATER V4.66.93.0                                                        03/11/2025  16:09:00  PAGE 10


      000000C9H   EDATA    BYTE      ?tm_dot_prod?BYTE
      000000C9H   EDATA    BYTE      ?tm_dot_prod_3x3x1?BYTE
*DEL*:1FFFFFF8H   EDATA    BYTE      ?tm_dot_prod_gap_3x3x1?BYTE
      000000C9H   EDATA    BYTE      ?tm_dot_prod_pack2?BYTE
      00000000H   EDATA    ---       ?tm_load?BYTE
      00000013H   EDATA    ---       ?tm_preprocess?BYTE
      00000011H   EDATA    ---       ?tm_run?BYTE
      00000041H   EDATA    BYTE      ?tml_conv2d_dwconv2d?BYTE
      00000041H   EDATA    BYTE      ?tml_fc?BYTE
      0000003DH   EDATA    BYTE      ?tml_gap?BYTE
      0000003DH   EDATA    BYTE      ?tml_reshape?BYTE
      00000041H   EDATA    BYTE      ?tml_softmax?BYTE
      0000025EH   HDATA    ---       __mp__
*DEL*:00000000H   CODE     ---       _draw_circle_8
*SFR* 000000BCH   DATA     BYTE      ADC_CONTR
*SFR* 000000DEH   DATA     BYTE      ADCCFG
      00FF540DH   CODE     ---       ADS_Read_AD
      00FF4C1FH   CODE     ---       ADS_Read_XY
      00FF4CB3H   CODE     ---       Ai_init
      00FF51D5H   CODE     ---       Ai_run
      00FF368DH   CODE     ---       aiTest
      00FF04C6H   CODE     ---       asc2_1206
      00FF10FAH   CODE     ---       asc2_1608
*SFR* 000000EFH   DATA     BYTE      AUXINTIF
*SFR* 0000008EH   DATA     BYTE      AUXR
*SFR* 00000097H   DATA     BYTE      AUXR2
      0000013DH   EDATA    WORD      BACK_COLOR
      00010930H   XDATA    ---       canvas
      00FF3BD9H   CODE     ---       canvas_process_character
      0000014EH   EDATA    WORD      chx
      00000150H   EDATA    WORD      chy
*SFR* 000000EAH   DATA     BYTE      CKCON
      00FF5459H   CODE     ---       clean_canvas
      00FF5449H   CODE     ---       clean_input_image
*SFR* 000000E6H   DATA     BYTE      CMPCR1
*SFR* 000000E7H   DATA     BYTE      CMPCR2
*DEL*:00000000H   CODE     ---       Color_To_565
      00000121H   EDATA    ---       ColornTab
      00000131H   EDATA    ---       ColorTab
      00FF4AE2H   CODE     ---       Convert_Pos
      00FF3D79H   CODE     ---       countResult
*SFR* 000000D0H.7 DATA     BIT       CY
*SFR* 000000B0H.2 DATA     BIT       DCLK
      00FF53F6H   CODE     ---       delay_ms
*DEL*:00000000H   CODE     ---       delay_us
*SFR* 000000B0H.4 DATA     BIT       DIN
*SFR* 000000B0H.3 DATA     BIT       DOUT
      00FF4D44H   CODE     ---       DrawTestPage
*DEL*:00000000H   CODE     ---       Drow_Touch_Point
*SFR* 000000A8H.7 DATA     BIT       EA
*SFR* 000000BAH.7 DATA     BIT       EAXFR
      00FF1A1EH   CODE     ---       exp?_
      0001155BH   XDATA    ---       expression
      00FF3438H   CODE     ---       expression_calc
      00011528H   XDATA    BYTE      expression_n
      00FF4F29H   CODE     ---       expression_to_string
*DEL*:00000000H   CODE     ---       free
*DEL*:00000000H   CODE     ---       gui_circle
      00FF44CEH   CODE     ---       GUI_DrawFont16
      00FF4369H   CODE     ---       GUI_DrawFont24
      00FF4204H   CODE     ---       GUI_DrawFont32
*DEL*:00000000H   CODE     ---       GUI_DrawPoint
      00FF5045H   CODE     ---       Gui_StrCenter
*SFR* 000000C7H   DATA     BYTE      IAP_CONTR
*SFR* 000000A8H   DATA     BYTE      IE
L251 LINKER/LOCATER V4.66.93.0                                                        03/11/2025  16:09:00  PAGE 11


*SFR* 000000AFH   DATA     BYTE      IE2
      00000115H   EDATA    ---       in
      000000E3H   EDATA    ---       in_uint8
      00010000H   XDATA    ---       input_image
*SFR* 0000008FH   DATA     BYTE      INTCLKO
*SFR* 000000B8H   DATA     BYTE      IP
*SFR* 000000B5H   DATA     BYTE      IP2
*SFR* 000000B6H   DATA     BYTE      IP2H
*SFR* 000000DFH   DATA     BYTE      IP3
*SFR* 000000EEH   DATA     BYTE      IP3H
*SFR* 000000B7H   DATA     BYTE      IPH
*SFR* 0000009DH   DATA     BYTE      IRCBAND
      00FF4DCEH   CODE     ---       l_postprocess_sum
      00FF50DFH   CODE     ---       LCD_Clear
*SFR* 00000080H.5 DATA     BIT       LCD_CS
      00FF4B82H   CODE     ---       LCD_direction
*DEL*:00000000H   CODE     ---       LCD_DrawLine
      00FF5478H   CODE     ---       LCD_DrawPoint
      00FF4FEDH   CODE     ---       LCD_Fill
      00FF2F67H   CODE     ---       LCD_Init
*DEL*:00000000H   CODE     ---       LCD_RD_DATA
*DEL*:00000000H   CODE     ---       Lcd_RD_DATA_16Bit
*DEL*:00000000H   CODE     ---       LCD_Read_ID
*DEL*:00000000H   CODE     ---       LCD_ReadPoint
*DEL*:00000000H   CODE     ---       LCD_ReadRAM_Prepare
*DEL*:00000000H   CODE     ---       LCD_ReadReg
*SFR* 000000C0H.7 DATA     BIT       LCD_RESET
      00FF52C0H   CODE     ---       LCD_Set_GPIO
*DEL*:00000000H   CODE     ---       LCD_SetCursor
      00FF0003H   CODE     ---       LCD_SetWindows
      00FF3A38H   CODE     ---       LCD_ShowChar
*DEL*:00000000H   CODE     ---       LCD_ShowNum
      00FF4E47H   CODE     ---       LCD_ShowString
      00FF5294H   CODE     ---       LCD_WR_DATA
      00FF5438H   CODE     ---       LCD_WR_DATA_16Bit
      00FF5268H   CODE     ---       LCD_WR_REG
      00FF005FH   CODE     ---       LCD_WriteRAM_Prepare
      00FF5469H   CODE     ---       LCD_WriteReg
      0000013FH   EDATA    ---       lcddev
      00FF53DDH   CODE     ---       LCDReset
      00FF534EH   CODE     ---       LCM_Config
      00FF53A8H   CODE     ---       LCM_Interrupt
      00FF5424H   CODE     ---       main
      00FF4F94H   CODE     ---       malloc
      000000EFH   EDATA    ---       mdl
      00010310H   XDATA    ---       mdl_buf
      00FF5FA0H   HCONST   ---       mdl_data
      00FF52E5H   CODE     ---       memcpy?_
      00FF53C3H   CODE     ---       memset?_
*DEL*:00000000H   CODE     ---       mypow
      00000109H   EDATA    ---       outs
*SFR* 00000080H   DATA     BYTE      P0
*SFR* 00000094H   DATA     BYTE      P0M0
*SFR* 00000093H   DATA     BYTE      P0M1
*SFR* 00000090H   DATA     BYTE      P1
*SFR* 00000092H   DATA     BYTE      P1M0
*SFR* 00000091H   DATA     BYTE      P1M1
*SFR* 000000A0H   DATA     BYTE      P2
*SFR* 00000096H   DATA     BYTE      P2M0
*SFR* 00000095H   DATA     BYTE      P2M1
*SFR* 000000B0H   DATA     BYTE      P3
*SFR* 000000B2H   DATA     BYTE      P3M0
*SFR* 000000B1H   DATA     BYTE      P3M1
*SFR* 000000C0H   DATA     BYTE      P4
*SFR* 000000B4H   DATA     BYTE      P4M0
L251 LINKER/LOCATER V4.66.93.0                                                        03/11/2025  16:09:00  PAGE 12


*SFR* 000000B3H   DATA     BYTE      P4M1
*SFR* 000000C8H   DATA     BYTE      P5
*SFR* 000000CAH   DATA     BYTE      P5M0
*SFR* 000000C9H   DATA     BYTE      P5M1
*SFR* 000000E8H   DATA     BYTE      P6
*SFR* 000000F8H   DATA     BYTE      P7
*SFR* 000000A2H   DATA     BYTE      P_SW1
*SFR* 000000BAH   DATA     BYTE      P_SW2
*SFR* 000000BBH   DATA     BYTE      P_SW3
*SFR* 000000BFH   DATA     BYTE      P_SW4
      00FF5124H   CODE     ---       paddingString
      00FF5098H   CODE     ---       parse_output
*SFR* 00000087H   DATA     BYTE      PCON
*SFR* 00000090H.4 DATA     BIT       Penirq
      0000013BH   EDATA    WORD      POINT_COLOR
      00FF1999H   CODE     NEAR LAB  printf
*SFR* 000000D0H   DATA     BYTE      PSW
*SFR* 000000D1H   DATA     BYTE      PSW1
      00FF21A3H   CODE     NEAR LAB  PUTCHAR
      00FF519DH   CODE     ---       Read_ADS
      00FF4997H   CODE     ---       Read_ADS2
*DEL*:00000000H   CODE     ---       Read_TP_Once
      00FF538CH   CODE     ---       ReadFromCharFrom7843
      00000107H   EDATA    INT       res
*SFR* 000000FFH   DATA     BYTE      RSTCFG
*SFR* 0000009AH   DATA     BYTE      S2CON
*SFR* 000000ACH   DATA     BYTE      S3CON
*SFR* 000000FDH   DATA     BYTE      S4CON
*SFR* 00000098H   DATA     BYTE      SCON
      00FF3F09H   CODE     ---       Show_Str
*SFR* 000000CEH   DATA     BYTE      SPCTL
*DEL*:00000000H   CODE     ---       spistar
      00FF19C5H   CODE     NEAR LAB  sprintf
*SFR* 000000CDH   DATA     BYTE      SPSTAT
      00FF5486H   CODE     ---       strlen?_
*SFR* 000000DDH   DATA     BYTE      T4T3M
*SFR* 00000088H   DATA     BYTE      TCON
*SFR* 00000090H.5 DATA     BIT       TCS
      00FF0946H   CODE     ---       tfont16
      00FF0276H   CODE     ---       tfont24
      00FF006EH   CODE     ---       tfont32
      00FF408FH   CODE     ---       tm_dot_prod
      00FF4800H   CODE     ---       tm_dot_prod_3x3x1
*DEL*:00000000H   CODE     ---       tm_dot_prod_gap_3x3x1
      00FF31E1H   CODE     ---       tm_dot_prod_pack2
      00FF4633H   CODE     ---       tm_load
      00FF4727H   CODE     ---       tm_preprocess
      00FF2AA0H   CODE     ---       tm_run
*DEL*:00000000H   CODE     ---       tm_unload
      00FF21B5H   CODE     ---       tml_conv2d_dwconv2d
      00FF48CDH   CODE     ---       tml_fc
      00FF4A3EH   CODE     ---       tml_gap
      00FF5494H   CODE     ---       tml_reshape
      00FF3887H   CODE     ---       tml_softmax
*SFR* 00000089H   DATA     BYTE      TMOD
*DEL*:00000000H   CODE     ---       Touch_Adjust
      00FF523BH   CODE     ---       TP_Draw_Big_Point
      00000156H   EDATA    ---       tp_pixad
      00000152H   EDATA    ---       tp_pixlcd
*DEL*:00000000H   CODE     ---       tpstate
*SFR* 000000F4H   DATA     BYTE      USBCON
      0000015AH   EDATA    WORD      vx
      0000015CH   EDATA    WORD      vy
*SFR* 000000C1H   DATA     BYTE      WDT_CONTR
*SFR* 000000ABH   DATA     BYTE      WKTCH
L251 LINKER/LOCATER V4.66.93.0                                                        03/11/2025  16:09:00  PAGE 13


      00FF536EH   CODE     ---       WriteCharTo7843
*SFR* 000000E9H   DATA     BYTE      WTST



SYMBOL TABLE OF MODULE:  ..\obj\ceshi (gui)

      VALUE       REP       CLASS    TYPE      SYMBOL NAME
      ====================================================
      ---         MODULE    ---      ---       gui
      00FF5045H   PUBLIC    CODE     ---       Gui_StrCenter
      00FF4FEDH   PUBLIC    CODE     ---       LCD_Fill
      00FF3F09H   PUBLIC    CODE     ---       Show_Str
      00FF4E47H   PUBLIC    CODE     ---       LCD_ShowString
      00FF4204H   PUBLIC    CODE     ---       GUI_DrawFont32
      00FF4369H   PUBLIC    CODE     ---       GUI_DrawFont24
      00FF44CEH   PUBLIC    CODE     ---       GUI_DrawFont16
      00FF3A38H   PUBLIC    CODE     ---       LCD_ShowChar
      00FF006EH   PUBLIC    CODE     ---       tfont32
      00FF0276H   PUBLIC    CODE     ---       tfont24
      00FF04C6H   PUBLIC    CODE     ---       asc2_1206
      00FF0946H   PUBLIC    CODE     ---       tfont16
      00FF10FAH   PUBLIC    CODE     ---       asc2_1608
      00000000H   PUBLIC    EDATA    BYTE      ?LCD_Fill?BYTE
      0000001DH   PUBLIC    EDATA    BYTE      ?LCD_ShowChar?BYTE
      00000015H   PUBLIC    EDATA    BYTE      ?LCD_ShowString?BYTE
      0000001DH   PUBLIC    EDATA    BYTE      ?GUI_DrawFont16?BYTE
      0000001DH   PUBLIC    EDATA    BYTE      ?GUI_DrawFont24?BYTE
      0000001DH   PUBLIC    EDATA    BYTE      ?GUI_DrawFont32?BYTE
      00000010H   PUBLIC    EDATA    BYTE      ?Show_Str?BYTE
      00000006H   PUBLIC    EDATA    BYTE      ?Gui_StrCenter?BYTE
      000000D0H   SFRSYM    DATA     BYTE      PSW
      0000009DH   SFRSYM    DATA     BYTE      IRCBAND
      00000097H   SFRSYM    DATA     BYTE      AUXR2
      000000EFH   SFRSYM    DATA     BYTE      AUXINTIF
      000000FDH   SFRSYM    DATA     BYTE      S4CON
      000000ACH   SFRSYM    DATA     BYTE      S3CON
      0000009AH   SFRSYM    DATA     BYTE      S2CON
      000000B7H   SFRSYM    DATA     BYTE      IPH
      000000CDH   SFRSYM    DATA     BYTE      SPSTAT
      000000DDH   SFRSYM    DATA     BYTE      T4T3M
      000000C1H   SFRSYM    DATA     BYTE      WDT_CONTR
      000000DFH   SFRSYM    DATA     BYTE      IP3
      000000F4H   SFRSYM    DATA     BYTE      USBCON
      000000B5H   SFRSYM    DATA     BYTE      IP2
      000000FFH   SFRSYM    DATA     BYTE      RSTCFG
      000000C7H   SFRSYM    DATA     BYTE      IAP_CONTR
      0000008EH   SFRSYM    DATA     BYTE      AUXR
      000000AFH   SFRSYM    DATA     BYTE      IE2
      00000088H   SFRSYM    DATA     BYTE      TCON
      00000089H   SFRSYM    DATA     BYTE      TMOD
      00000098H   SFRSYM    DATA     BYTE      SCON
      00000087H   SFRSYM    DATA     BYTE      PCON
      000000BCH   SFRSYM    DATA     BYTE      ADC_CONTR
      000000D1H   SFRSYM    DATA     BYTE      PSW1
      000000E7H   SFRSYM    DATA     BYTE      CMPCR2
      000000E6H   SFRSYM    DATA     BYTE      CMPCR1
      000000DEH   SFRSYM    DATA     BYTE      ADCCFG
      000000B8H   SFRSYM    DATA     BYTE      IP
      0000008FH   SFRSYM    DATA     BYTE      INTCLKO
      000000EEH   SFRSYM    DATA     BYTE      IP3H
      000000B6H   SFRSYM    DATA     BYTE      IP2H
      000000BFH   SFRSYM    DATA     BYTE      P_SW4
      000000A8H   SFRSYM    DATA     BYTE      IE
      000000BBH   SFRSYM    DATA     BYTE      P_SW3
L251 LINKER/LOCATER V4.66.93.0                                                        03/11/2025  16:09:00  PAGE 14


      000000BAH   SFRSYM    DATA     BYTE      P_SW2
      000000A2H   SFRSYM    DATA     BYTE      P_SW1
      000000CEH   SFRSYM    DATA     BYTE      SPCTL
      000000F8H   SFRSYM    DATA     BYTE      P7
      000000E8H   SFRSYM    DATA     BYTE      P6
      000000C8H   SFRSYM    DATA     BYTE      P5
      000000C0H   SFRSYM    DATA     BYTE      P4
      000000ABH   SFRSYM    DATA     BYTE      WKTCH
      000000B0H   SFRSYM    DATA     BYTE      P3
      000000A0H   SFRSYM    DATA     BYTE      P2
      00000090H   SFRSYM    DATA     BYTE      P1
      00000080H   SFRSYM    DATA     BYTE      P0
      WR6         REGSYM    ---      WORD      x
      WR4         REGSYM    ---      WORD      y
      WR14        REGSYM    ---      WORD      color

      00FF4FEDH   BLOCK     CODE     ---       LVL=0
      WR10        REGSYM    ---      WORD      sx
      WR4         REGSYM    ---      WORD      sy
      WR2         REGSYM    ---      WORD      ex
      WR0         REGSYM    ---      WORD      ey
      00000008H   SYMBOL    EDATA    WORD      color
      00FF4FF1H   BLOCK     CODE     NEAR LAB  LVL=1
      WR12        REGSYM    ---      WORD      i
      0000000AH   SYMBOL    EDATA    WORD      j
      WR14        REGSYM    ---      WORD      width
      0000000CH   SYMBOL    EDATA    WORD      height
      ---         BLOCKEND  ---      ---       LVL=1
      00FF4FEDH   LINE      CODE     ---       #14
      00FF4FF1H   LINE      CODE     ---       #15
      00FF4FF1H   LINE      CODE     ---       #17
      00FF4FF7H   LINE      CODE     ---       #18
      00FF5001H   LINE      CODE     ---       #19
      00FF5006H   LINE      CODE     ---       #20
      00FF500AH   LINE      CODE     ---       #22
      00FF500EH   LINE      CODE     ---       #23
      00FF5025H   LINE      CODE     ---       #24
      00FF502FH   LINE      CODE     ---       #25
      00FF5042H   LINE      CODE     ---       #26
      ---         BLOCKEND  ---      ---       LVL=0
      WR2         REGSYM    ---      WORD      x1
      WR4         REGSYM    ---      WORD      y1
      WR10        REGSYM    ---      WORD      x2
      WR0         REGSYM    ---      WORD      y2
      WR14        REGSYM    ---      INT       delta_x
      WR12        REGSYM    ---      INT       delta_y

      00FF3A38H   BLOCK     CODE     ---       LVL=0
      WR12        REGSYM    ---      WORD      x
      WR14        REGSYM    ---      WORD      y
      00000021H   SYMBOL    EDATA    WORD      fc
      00000023H   SYMBOL    EDATA    WORD      bc
      00000025H   SYMBOL    EDATA    BYTE      num
      00000026H   SYMBOL    EDATA    BYTE      size
      00000027H   SYMBOL    EDATA    BYTE      mode
      00FF3A4AH   BLOCK     CODE     NEAR LAB  LVL=1
      00000028H   SYMBOL    EDATA    BYTE      temp
      00000029H   SYMBOL    EDATA    BYTE      pos
      0000002AH   SYMBOL    EDATA    BYTE      t
      0000002BH   SYMBOL    EDATA    WORD      colortemp
      ---         BLOCKEND  ---      ---       LVL=1
      00FF3A38H   LINE      CODE     ---       #65
      00FF3A4AH   LINE      CODE     ---       #66
      00FF3A4AH   LINE      CODE     ---       #69
      00FF3A52H   LINE      CODE     ---       #71
L251 LINKER/LOCATER V4.66.93.0                                                        03/11/2025  16:09:00  PAGE 15


      00FF3A60H   LINE      CODE     ---       #72
      00FF3A77H   LINE      CODE     ---       #73
      00FF3A80H   LINE      CODE     ---       #75
      00FF3A84H   LINE      CODE     ---       #77
      00FF3AA2H   LINE      CODE     ---       #78
      00FF3AC3H   LINE      CODE     ---       #79
      00FF3AC6H   LINE      CODE     ---       #81
      00FF3AD3H   LINE      CODE     ---       #82
      00FF3ADAH   LINE      CODE     ---       #83
      00FF3AE4H   LINE      CODE     ---       #85
      00FF3AFFH   LINE      CODE     ---       #86
      00FF3B15H   LINE      CODE     ---       #87
      00FF3B18H   LINE      CODE     ---       #89
      00FF3B1CH   LINE      CODE     ---       #91
      00FF3B3AH   LINE      CODE     ---       #92
      00FF3B5BH   LINE      CODE     ---       #93
      00FF3B5EH   LINE      CODE     ---       #95
      00FF3B66H   LINE      CODE     ---       #96
      00FF3B80H   LINE      CODE     ---       #97
      00FF3B8AH   LINE      CODE     ---       #98
      00FF3BA5H   LINE      CODE     ---       #99
      00FF3BBBH   LINE      CODE     ---       #100
      00FF3BBBH   LINE      CODE     ---       #101
      00FF3BC3H   LINE      CODE     ---       #102
      00FF3BD6H   LINE      CODE     ---       #103
      ---         BLOCKEND  ---      ---       LVL=0
      R8          REGSYM    ---      BYTE      m
      R9          REGSYM    ---      BYTE      n
      DR4         REGSYM    ---      DWORD     result
      DR12        REGSYM    ---      DWORD     num

      00FF4E47H   BLOCK     CODE     ---       LVL=0
      00000019H   SYMBOL    EDATA    WORD      x
      0000001BH   SYMBOL    EDATA    WORD      y
      0000001DH   SYMBOL    EDATA    BYTE      size
      REG=3       REGSYM    ---      ---       p
      0000001EH   SYMBOL    EDATA    BYTE      mode
      00FF4E47H   LINE      CODE     ---       #132
      00FF4E57H   LINE      CODE     ---       #134
      00FF4E59H   LINE      CODE     ---       #136
      00FF4E71H   LINE      CODE     ---       #137
      00FF4E71H   LINE      CODE     ---       #138
      00FF4E97H   LINE      CODE     ---       #139
      00FF4EA7H   LINE      CODE     ---       #140
      00FF4EA9H   LINE      CODE     ---       #141
      00FF4EB6H   LINE      CODE     ---       #142
      ---         BLOCKEND  ---      ---       LVL=0

      00FF44CEH   BLOCK     CODE     ---       LVL=0
      WR14        REGSYM    ---      WORD      x
      WR12        REGSYM    ---      WORD      y
      00000021H   SYMBOL    EDATA    WORD      fc
      00000023H   SYMBOL    EDATA    WORD      bc
      00000025H   SYMBOL    EDATA    ---       s
      00000029H   SYMBOL    EDATA    BYTE      mode
      00FF44E0H   BLOCK     CODE     NEAR LAB  LVL=1
      0000002AH   SYMBOL    EDATA    BYTE      i
      0000002BH   SYMBOL    EDATA    BYTE      j
      0000002CH   SYMBOL    EDATA    WORD      k
      0000002EH   SYMBOL    EDATA    WORD      x0
      ---         BLOCKEND  ---      ---       LVL=1
      00FF44CEH   LINE      CODE     ---       #144
      00FF44E0H   LINE      CODE     ---       #145
      00FF44E0H   LINE      CODE     ---       #149
      00FF44E4H   LINE      CODE     ---       #150
L251 LINKER/LOCATER V4.66.93.0                                                        03/11/2025  16:09:00  PAGE 16


      00FF44E4H   LINE      CODE     ---       #152
      00FF44EAH   LINE      CODE     ---       #154
      00FF4527H   LINE      CODE     ---       #156
      00FF453AH   LINE      CODE     ---       #157
      00FF453FH   LINE      CODE     ---       #159
      00FF4544H   LINE      CODE     ---       #161
      00FF454AH   LINE      CODE     ---       #163
      00FF4583H   LINE      CODE     ---       #164
      00FF458AH   LINE      CODE     ---       #165
      00FF458CH   LINE      CODE     ---       #168
      00FF4594H   LINE      CODE     ---       #169
      00FF45CEH   LINE      CODE     ---       #170
      00FF45D0H   LINE      CODE     ---       #171
      00FF45DCH   LINE      CODE     ---       #173
      00FF45E0H   LINE      CODE     ---       #174
      00FF45E2H   LINE      CODE     ---       #175
      00FF45E4H   LINE      CODE     ---       #176
      00FF45E4H   LINE      CODE     ---       #178
      00FF45F9H   LINE      CODE     ---       #179
      00FF460AH   LINE      CODE     ---       #180
      00FF460AH   LINE      CODE     ---       #181
      00FF460AH   LINE      CODE     ---       #182
      00FF461DH   LINE      CODE     ---       #183
      00FF4630H   LINE      CODE     ---       #184
      ---         BLOCKEND  ---      ---       LVL=0

      00FF4369H   BLOCK     CODE     ---       LVL=0
      WR14        REGSYM    ---      WORD      x
      WR12        REGSYM    ---      WORD      y
      00000021H   SYMBOL    EDATA    WORD      fc
      00000023H   SYMBOL    EDATA    WORD      bc
      00000025H   SYMBOL    EDATA    ---       s
      00000029H   SYMBOL    EDATA    BYTE      mode
      00FF437BH   BLOCK     CODE     NEAR LAB  LVL=1
      0000002AH   SYMBOL    EDATA    BYTE      i
      0000002BH   SYMBOL    EDATA    BYTE      j
      0000002CH   SYMBOL    EDATA    WORD      k
      0000002EH   SYMBOL    EDATA    WORD      x0
      ---         BLOCKEND  ---      ---       LVL=1
      00FF4369H   LINE      CODE     ---       #186
      00FF437BH   LINE      CODE     ---       #187
      00FF437BH   LINE      CODE     ---       #191
      00FF437FH   LINE      CODE     ---       #192
      00FF437FH   LINE      CODE     ---       #194
      00FF4385H   LINE      CODE     ---       #196
      00FF43C2H   LINE      CODE     ---       #198
      00FF43D5H   LINE      CODE     ---       #199
      00FF43DAH   LINE      CODE     ---       #201
      00FF43DFH   LINE      CODE     ---       #203
      00FF43E5H   LINE      CODE     ---       #205
      00FF441EH   LINE      CODE     ---       #206
      00FF4425H   LINE      CODE     ---       #207
      00FF4427H   LINE      CODE     ---       #210
      00FF442FH   LINE      CODE     ---       #211
      00FF4469H   LINE      CODE     ---       #212
      00FF446BH   LINE      CODE     ---       #213
      00FF4477H   LINE      CODE     ---       #215
      00FF447BH   LINE      CODE     ---       #216
      00FF447DH   LINE      CODE     ---       #217
      00FF447FH   LINE      CODE     ---       #218
      00FF447FH   LINE      CODE     ---       #220
      00FF4494H   LINE      CODE     ---       #221
      00FF44A5H   LINE      CODE     ---       #222
      00FF44A5H   LINE      CODE     ---       #223
      00FF44A5H   LINE      CODE     ---       #224
L251 LINKER/LOCATER V4.66.93.0                                                        03/11/2025  16:09:00  PAGE 17


      00FF44B8H   LINE      CODE     ---       #225
      00FF44CBH   LINE      CODE     ---       #226
      ---         BLOCKEND  ---      ---       LVL=0

      00FF4204H   BLOCK     CODE     ---       LVL=0
      WR14        REGSYM    ---      WORD      x
      WR12        REGSYM    ---      WORD      y
      00000021H   SYMBOL    EDATA    WORD      fc
      00000023H   SYMBOL    EDATA    WORD      bc
      00000025H   SYMBOL    EDATA    ---       s
      00000029H   SYMBOL    EDATA    BYTE      mode
      00FF4216H   BLOCK     CODE     NEAR LAB  LVL=1
      0000002AH   SYMBOL    EDATA    BYTE      i
      0000002BH   SYMBOL    EDATA    BYTE      j
      0000002CH   SYMBOL    EDATA    WORD      k
      0000002EH   SYMBOL    EDATA    WORD      x0
      ---         BLOCKEND  ---      ---       LVL=1
      00FF4204H   LINE      CODE     ---       #229
      00FF4216H   LINE      CODE     ---       #230
      00FF4216H   LINE      CODE     ---       #234
      00FF421AH   LINE      CODE     ---       #235
      00FF421AH   LINE      CODE     ---       #236
      00FF4220H   LINE      CODE     ---       #238
      00FF425DH   LINE      CODE     ---       #240
      00FF4270H   LINE      CODE     ---       #241
      00FF4275H   LINE      CODE     ---       #243
      00FF427AH   LINE      CODE     ---       #245
      00FF4280H   LINE      CODE     ---       #247
      00FF42B9H   LINE      CODE     ---       #248
      00FF42C0H   LINE      CODE     ---       #249
      00FF42C2H   LINE      CODE     ---       #252
      00FF42CAH   LINE      CODE     ---       #253
      00FF4304H   LINE      CODE     ---       #254
      00FF4306H   LINE      CODE     ---       #255
      00FF4312H   LINE      CODE     ---       #257
      00FF4316H   LINE      CODE     ---       #258
      00FF4318H   LINE      CODE     ---       #259
      00FF431AH   LINE      CODE     ---       #260
      00FF431AH   LINE      CODE     ---       #262
      00FF432FH   LINE      CODE     ---       #263
      00FF4340H   LINE      CODE     ---       #264
      00FF4340H   LINE      CODE     ---       #265
      00FF4340H   LINE      CODE     ---       #266
      00FF4353H   LINE      CODE     ---       #267
      00FF4366H   LINE      CODE     ---       #268
      ---         BLOCKEND  ---      ---       LVL=0

      00FF3F09H   BLOCK     CODE     ---       LVL=0
      WR14        REGSYM    ---      WORD      x
      WR12        REGSYM    ---      WORD      y
      00000014H   SYMBOL    EDATA    WORD      fc
      00000016H   SYMBOL    EDATA    WORD      bc
      00000018H   SYMBOL    EDATA    ---       str
      0000001CH   SYMBOL    EDATA    BYTE      size
      0000001DH   SYMBOL    EDATA    BYTE      mode
      00FF3F1BH   BLOCK     CODE     NEAR LAB  LVL=1
      0000001EH   SYMBOL    EDATA    WORD      x0
      00000020H   SYMBOL    EDATA    BYTE      bHz
      ---         BLOCKEND  ---      ---       LVL=1
      00FF3F09H   LINE      CODE     ---       #270
      00FF3F1BH   LINE      CODE     ---       #271
      00FF3F1BH   LINE      CODE     ---       #272
      00FF3F1FH   LINE      CODE     ---       #273
      00FF3F20H   LINE      CODE     ---       #274
      00FF3F22H   LINE      CODE     ---       #276
L251 LINKER/LOCATER V4.66.93.0                                                        03/11/2025  16:09:00  PAGE 18


      00FF3F2BH   LINE      CODE     ---       #278
      00FF3F4FH   LINE      CODE     ---       #279
      00FF3F4FH   LINE      CODE     ---       #280
      00FF3F64H   LINE      CODE     ---       #283
      00FF3F69H   LINE      CODE     ---       #285
      00FF3F6BH   LINE      CODE     ---       #286
      00FF3F6FH   LINE      CODE     ---       #287
      00FF3F79H   LINE      CODE     ---       #288
      00FF3F7BH   LINE      CODE     ---       #291
      00FF3F84H   LINE      CODE     ---       #293
      00FF3FA3H   LINE      CODE     ---       #294
      00FF3FA7H   LINE      CODE     ---       #295
      00FF3FA9H   LINE      CODE     ---       #298
      00FF3FCFH   LINE      CODE     ---       #299
      00FF3FD9H   LINE      CODE     ---       #300
      00FF3FD9H   LINE      CODE     ---       #301
      00FF3FD9H   LINE      CODE     ---       #302
      00FF3FE3H   LINE      CODE     ---       #303
      00FF3FE3H   LINE      CODE     ---       #304
      00FF3FE6H   LINE      CODE     ---       #307
      00FF4006H   LINE      CODE     ---       #308
      00FF4006H   LINE      CODE     ---       #309
      00FF400BH   LINE      CODE     ---       #310
      00FF4012H   LINE      CODE     ---       #311
      00FF402FH   LINE      CODE     ---       #312
      00FF4036H   LINE      CODE     ---       #313
      00FF4053H   LINE      CODE     ---       #315
      00FF406EH   LINE      CODE     ---       #317
      00FF4078H   LINE      CODE     ---       #318
      00FF4080H   LINE      CODE     ---       #319
      00FF4080H   LINE      CODE     ---       #320
      00FF408CH   LINE      CODE     ---       #321
      ---         BLOCKEND  ---      ---       LVL=0
      WR12        REGSYM    ---      INT       x
      WR14        REGSYM    ---      INT       y
      WR12        REGSYM    ---      INT       yc
      WR14        REGSYM    ---      WORD      c
      WR0         REGSYM    ---      INT       r

      00FF5045H   BLOCK     CODE     ---       LVL=0
      00000008H   SYMBOL    EDATA    WORD      x
      0000000AH   SYMBOL    EDATA    WORD      y
      0000000CH   SYMBOL    EDATA    WORD      fc
      WR12        REGSYM    ---      WORD      bc
      0000000EH   SYMBOL    EDATA    ---       str
      R15         REGSYM    ---      BYTE      size
      00000013H   SYMBOL    EDATA    BYTE      mode
      00FF5059H   BLOCK     CODE     NEAR LAB  LVL=1
      WR4         REGSYM    ---      WORD      len
      WR6         REGSYM    ---      WORD      x1
      ---         BLOCKEND  ---      ---       LVL=1
      00FF5045H   LINE      CODE     ---       #381
      00FF5059H   LINE      CODE     ---       #382
      00FF5059H   LINE      CODE     ---       #383
      00FF5062H   LINE      CODE     ---       #384
      00FF5070H   LINE      CODE     ---       #385
      00FF5093H   LINE      CODE     ---       #386
      ---         BLOCKEND  ---      ---       LVL=0

      ---         MODULE    ---      ---       main
      00FF5424H   PUBLIC    CODE     ---       main
      000000D0H   SFRSYM    DATA     BYTE      PSW
      000000BAH.7 SFRSYM    DATA     BIT       EAXFR
      0000009DH   SFRSYM    DATA     BYTE      IRCBAND
      00000097H   SFRSYM    DATA     BYTE      AUXR2
L251 LINKER/LOCATER V4.66.93.0                                                        03/11/2025  16:09:00  PAGE 19


      000000EAH   SFRSYM    DATA     BYTE      CKCON
      000000EFH   SFRSYM    DATA     BYTE      AUXINTIF
      000000FDH   SFRSYM    DATA     BYTE      S4CON
      000000ACH   SFRSYM    DATA     BYTE      S3CON
      0000009AH   SFRSYM    DATA     BYTE      S2CON
      000000B7H   SFRSYM    DATA     BYTE      IPH
      000000CDH   SFRSYM    DATA     BYTE      SPSTAT
      000000DDH   SFRSYM    DATA     BYTE      T4T3M
      000000C1H   SFRSYM    DATA     BYTE      WDT_CONTR
      000000E9H   SFRSYM    DATA     BYTE      WTST
      000000DFH   SFRSYM    DATA     BYTE      IP3
      000000F4H   SFRSYM    DATA     BYTE      USBCON
      000000B5H   SFRSYM    DATA     BYTE      IP2
      000000FFH   SFRSYM    DATA     BYTE      RSTCFG
      000000C7H   SFRSYM    DATA     BYTE      IAP_CONTR
      0000008EH   SFRSYM    DATA     BYTE      AUXR
      000000AFH   SFRSYM    DATA     BYTE      IE2
      00000088H   SFRSYM    DATA     BYTE      TCON
      00000089H   SFRSYM    DATA     BYTE      TMOD
      00000098H   SFRSYM    DATA     BYTE      SCON
      00000087H   SFRSYM    DATA     BYTE      PCON
      000000BCH   SFRSYM    DATA     BYTE      ADC_CONTR
      000000D1H   SFRSYM    DATA     BYTE      PSW1
      000000E7H   SFRSYM    DATA     BYTE      CMPCR2
      000000E6H   SFRSYM    DATA     BYTE      CMPCR1
      000000DEH   SFRSYM    DATA     BYTE      ADCCFG
      000000B8H   SFRSYM    DATA     BYTE      IP
      0000008FH   SFRSYM    DATA     BYTE      INTCLKO
      000000EEH   SFRSYM    DATA     BYTE      IP3H
      000000B6H   SFRSYM    DATA     BYTE      IP2H
      000000BFH   SFRSYM    DATA     BYTE      P_SW4
      000000A8H   SFRSYM    DATA     BYTE      IE
      000000BBH   SFRSYM    DATA     BYTE      P_SW3
      000000BAH   SFRSYM    DATA     BYTE      P_SW2
      000000A2H   SFRSYM    DATA     BYTE      P_SW1
      000000CEH   SFRSYM    DATA     BYTE      SPCTL
      000000F8H   SFRSYM    DATA     BYTE      P7
      000000E8H   SFRSYM    DATA     BYTE      P6
      000000C8H   SFRSYM    DATA     BYTE      P5
      000000C0H   SFRSYM    DATA     BYTE      P4
      000000ABH   SFRSYM    DATA     BYTE      WKTCH
      000000B0H   SFRSYM    DATA     BYTE      P3
      000000A0H   SFRSYM    DATA     BYTE      P2
      00000090H   SFRSYM    DATA     BYTE      P1
      00000080H   SFRSYM    DATA     BYTE      P0

      00FF5424H   BLOCK     CODE     ---       LVL=0
      00FF5424H   LINE      CODE     ---       #8
      00FF5424H   LINE      CODE     ---       #10
      00FF5427H   LINE      CODE     ---       #11
      00FF542AH   LINE      CODE     ---       #12
      00FF542DH   LINE      CODE     ---       #15
      00FF5430H   LINE      CODE     ---       #16
      00FF5433H   LINE      CODE     ---       #19
      00FF5433H   LINE      CODE     ---       #21
      00FF5436H   LINE      CODE     ---       #22
      ---         BLOCKEND  ---      ---       LVL=0

      ---         MODULE    ---      ---       test
      00FF3D79H   PUBLIC    CODE     ---       countResult
      00FF4D44H   PUBLIC    CODE     ---       DrawTestPage
      00FF5124H   PUBLIC    CODE     ---       paddingString
      00FF368DH   PUBLIC    CODE     ---       aiTest
      00000121H   PUBLIC    EDATA    ---       ColornTab
      00000131H   PUBLIC    EDATA    ---       ColorTab
L251 LINKER/LOCATER V4.66.93.0                                                        03/11/2025  16:09:00  PAGE 20


      00011528H   PUBLIC    XDATA    BYTE      expression_n
      0001155BH   PUBLIC    XDATA    ---       expression
      000000D0H   SFRSYM    DATA     BYTE      PSW
      0000009DH   SFRSYM    DATA     BYTE      IRCBAND
      00000097H   SFRSYM    DATA     BYTE      AUXR2
      000000EFH   SFRSYM    DATA     BYTE      AUXINTIF
      000000FDH   SFRSYM    DATA     BYTE      S4CON
      000000ACH   SFRSYM    DATA     BYTE      S3CON
      0000009AH   SFRSYM    DATA     BYTE      S2CON
      000000B7H   SFRSYM    DATA     BYTE      IPH
      000000CDH   SFRSYM    DATA     BYTE      SPSTAT
      000000DDH   SFRSYM    DATA     BYTE      T4T3M
      000000C1H   SFRSYM    DATA     BYTE      WDT_CONTR
      000000DFH   SFRSYM    DATA     BYTE      IP3
      000000F4H   SFRSYM    DATA     BYTE      USBCON
      000000B5H   SFRSYM    DATA     BYTE      IP2
      000000FFH   SFRSYM    DATA     BYTE      RSTCFG
      000000C7H   SFRSYM    DATA     BYTE      IAP_CONTR
      0000008EH   SFRSYM    DATA     BYTE      AUXR
      000000AFH   SFRSYM    DATA     BYTE      IE2
      00000088H   SFRSYM    DATA     BYTE      TCON
      00000089H   SFRSYM    DATA     BYTE      TMOD
      00000098H   SFRSYM    DATA     BYTE      SCON
      00000087H   SFRSYM    DATA     BYTE      PCON
      000000BCH   SFRSYM    DATA     BYTE      ADC_CONTR
      000000D1H   SFRSYM    DATA     BYTE      PSW1
      000000E7H   SFRSYM    DATA     BYTE      CMPCR2
      000000E6H   SFRSYM    DATA     BYTE      CMPCR1
      000000DEH   SFRSYM    DATA     BYTE      ADCCFG
      000000B8H   SFRSYM    DATA     BYTE      IP
      0000008FH   SFRSYM    DATA     BYTE      INTCLKO
      000000EEH   SFRSYM    DATA     BYTE      IP3H
      000000B6H   SFRSYM    DATA     BYTE      IP2H
      000000BFH   SFRSYM    DATA     BYTE      P_SW4
      000000A8H   SFRSYM    DATA     BYTE      IE
      000000BBH   SFRSYM    DATA     BYTE      P_SW3
      000000BAH   SFRSYM    DATA     BYTE      P_SW2
      000000A2H   SFRSYM    DATA     BYTE      P_SW1
      000000CEH   SFRSYM    DATA     BYTE      SPCTL
      000000F8H   SFRSYM    DATA     BYTE      P7
      000000E8H   SFRSYM    DATA     BYTE      P6
      000000C8H   SFRSYM    DATA     BYTE      P5
      000000C0H   SFRSYM    DATA     BYTE      P4
      000000ABH   SFRSYM    DATA     BYTE      WKTCH
      000000B0H   SFRSYM    DATA     BYTE      P3
      000000A0H   SFRSYM    DATA     BYTE      P2
      00000090H   SFRSYM    DATA     BYTE      P1
      00000080H   SFRSYM    DATA     BYTE      P0
      00011529H   SYMBOL    XDATA    ---       strBuffer

      00FF4D44H   BLOCK     CODE     ---       LVL=0
      REG=3       REGSYM    ---      ---       str
      00FF4D44H   LINE      CODE     ---       #19
      00FF4D48H   LINE      CODE     ---       #22
      00FF4D4FH   LINE      CODE     ---       #23
      00FF4D66H   LINE      CODE     ---       #25
      00FF4D81H   LINE      CODE     ---       #26
      00FF4D89H   LINE      CODE     ---       #27
      00FF4DA2H   LINE      CODE     ---       #28
      00FF4DCBH   LINE      CODE     ---       #31
      ---         BLOCKEND  ---      ---       LVL=0

      00FF5124H   BLOCK     CODE     ---       LVL=0
      REG=3       REGSYM    ---      ---       buffer
      00000019H   SYMBOL    EDATA    CHAR      c
L251 LINKER/LOCATER V4.66.93.0                                                        03/11/2025  16:09:00  PAGE 21


      0000001AH   SYMBOL    EDATA    BYTE      new_length
      00FF5130H   BLOCK     CODE     NEAR LAB  LVL=1
      R11         REGSYM    ---      BYTE      current_length
      R11         REGSYM    ---      BYTE      i
      ---         BLOCKEND  ---      ---       LVL=1
      00FF5124H   LINE      CODE     ---       #33
      00FF5130H   LINE      CODE     ---       #34
      00FF5130H   LINE      CODE     ---       #38
      00FF5135H   LINE      CODE     ---       #41
      00FF513DH   LINE      CODE     ---       #43
      00FF513DH   LINE      CODE     ---       #44
      00FF513DH   LINE      CODE     ---       #47
      00FF513FH   LINE      CODE     ---       #49
      00FF514CH   LINE      CODE     ---       #50
      00FF5155H   LINE      CODE     ---       #53
      00FF515FH   LINE      CODE     ---       #54
      ---         BLOCKEND  ---      ---       LVL=0

      00FF3D79H   BLOCK     CODE     ---       LVL=0
      00FF3D7BH   BLOCK     CODE     NEAR LAB  LVL=1
      DR12        REGSYM    ---      DWORD     x
      00000008H   SYMBOL    EDATA    DWORD     y
      0000000CH   SYMBOL    EDATA    BYTE      sum
      0000000DH   SYMBOL    EDATA    INT       in_char
      0000000FH   SYMBOL    EDATA    INT       char_count
      00000011H   SYMBOL    EDATA    DWORD     start_col
      00FF3DFBH   BLOCK     CODE     NEAR LAB  LVL=2
      00000015H   SYMBOL    EDATA    DWORD     end_col
      ---         BLOCKEND  ---      ---       LVL=2
      00FF3E43H   BLOCK     CODE     NEAR LAB  LVL=2
      ---         BLOCKEND  ---      ---       LVL=2
      ---         BLOCKEND  ---      ---       LVL=1
      00FF3D79H   LINE      CODE     ---       #61
      00FF3D7BH   LINE      CODE     ---       #62
      00FF3D7BH   LINE      CODE     ---       #65
      00FF3D81H   LINE      CODE     ---       #66
      00FF3D85H   LINE      CODE     ---       #67
      00FF3D8BH   LINE      CODE     ---       #68
      00FF3D90H   LINE      CODE     ---       #70
      00FF3D90H   LINE      CODE     ---       #72
      00FF3D95H   LINE      CODE     ---       #73
      00FF3D9BH   LINE      CODE     ---       #75
      00FF3DBFH   LINE      CODE     ---       #76
      00FF3DCDH   LINE      CODE     ---       #78
      00FF3DD3H   LINE      CODE     ---       #81
      00FF3DDBH   LINE      CODE     ---       #83
      00FF3DE3H   LINE      CODE     ---       #84
      00FF3DE7H   LINE      CODE     ---       #85
      00FF3DF1H   LINE      CODE     ---       #86
      00FF3DF3H   LINE      CODE     ---       #91
      00FF3DFBH   LINE      CODE     ---       #92
      00FF3DFBH   LINE      CODE     ---       #94
      00FF3E01H   LINE      CODE     ---       #95
      00FF3E09H   LINE      CODE     ---       #97
      00FF3E12H   LINE      CODE     ---       #99
      00FF3E30H   LINE      CODE     ---       #100
      00FF3E30H   LINE      CODE     ---       #102
      00FF3E30H   LINE      CODE     ---       #103
      00FF3E3BH   LINE      CODE     ---       #106
      00FF3E43H   LINE      CODE     ---       #107
      00FF3E43H   LINE      CODE     ---       #109
      00FF3E43H   LINE      CODE     ---       #111
      00FF3E50H   LINE      CODE     ---       #113
      00FF3E6EH   LINE      CODE     ---       #114
      00FF3E6EH   LINE      CODE     ---       #120
L251 LINKER/LOCATER V4.66.93.0                                                        03/11/2025  16:09:00  PAGE 22


      00FF3E96H   LINE      CODE     ---       #122
      00FF3EA6H   LINE      CODE     ---       #123
      00FF3EC1H   LINE      CODE     ---       #125
      00FF3ED8H   LINE      CODE     ---       #126
      00FF3EE8H   LINE      CODE     ---       #128
      00FF3F03H   LINE      CODE     ---       #130
      00FF3F06H   LINE      CODE     ---       #132
      ---         BLOCKEND  ---      ---       LVL=0

      00FF368DH   BLOCK     CODE     ---       LVL=0
      WR14        REGSYM    ---      WORD      j
      WR12        REGSYM    ---      WORD      colorTemp
      00FF368DH   LINE      CODE     ---       #135
      00FF368DH   LINE      CODE     ---       #136
      00FF368DH   LINE      CODE     ---       #137
      00FF3691H   LINE      CODE     ---       #138
      00FF3691H   LINE      CODE     ---       #139
      00FF369CH   LINE      CODE     ---       #141
      00FF36B9H   LINE      CODE     ---       #143
      00FF36D8H   LINE      CODE     ---       #144
      00FF36DEH   LINE      CODE     ---       #147
      00FF36F1H   LINE      CODE     ---       #152
      00FF36F1H   LINE      CODE     ---       #154
      00FF36F9H   LINE      CODE     ---       #156
      00FF370DH   LINE      CODE     ---       #158
      00FF3721H   LINE      CODE     ---       #160
      00FF372CH   LINE      CODE     ---       #161
      00FF3749H   LINE      CODE     ---       #162
      00FF374DH   LINE      CODE     ---       #163
      00FF376EH   LINE      CODE     ---       #164
      00FF3783H   LINE      CODE     ---       #165
      00FF3789H   LINE      CODE     ---       #166
      00FF378DH   LINE      CODE     ---       #167
      00FF3790H   LINE      CODE     ---       #168
      00FF3793H   LINE      CODE     ---       #169
      00FF37B9H   LINE      CODE     ---       #171
      00FF37E0H   LINE      CODE     ---       #172
      00FF37F6H   LINE      CODE     ---       #173
      00FF37F6H   LINE      CODE     ---       #174
      00FF37FAH   LINE      CODE     ---       #176
      00FF3831H   LINE      CODE     ---       #177
      00FF3837H   LINE      CODE     ---       #178
      00FF383EH   LINE      CODE     ---       #180
      00FF3867H   LINE      CODE     ---       #182
      00FF3877H   LINE      CODE     ---       #183
      00FF387AH   LINE      CODE     ---       #185
      00FF387AH   LINE      CODE     ---       #189
      00FF387AH   LINE      CODE     ---       #190
      00FF3884H   LINE      CODE     ---       #191
      ---         BLOCKEND  ---      ---       LVL=0

      ---         MODULE    ---      ---       Ai
      00FF5FA0H   PUBLIC    HCONST   ---       mdl_data
      00FF5449H   PUBLIC    CODE     ---       clean_input_image
      00FF5098H   PUBLIC    CODE     ---       parse_output
      00FF4CB3H   PUBLIC    CODE     ---       Ai_init
      00FF51D5H   PUBLIC    CODE     ---       Ai_run
      00010000H   PUBLIC    XDATA    ---       input_image
      00010310H   PUBLIC    XDATA    ---       mdl_buf
      000000E3H   PUBLIC    EDATA    ---       in_uint8
      000000EFH   PUBLIC    EDATA    ---       mdl
      00000107H   PUBLIC    EDATA    INT       res
      00000109H   PUBLIC    EDATA    ---       outs
      00000115H   PUBLIC    EDATA    ---       in
      000000D0H   SFRSYM    DATA     BYTE      PSW
L251 LINKER/LOCATER V4.66.93.0                                                        03/11/2025  16:09:00  PAGE 23


      0000009DH   SFRSYM    DATA     BYTE      IRCBAND
      00000097H   SFRSYM    DATA     BYTE      AUXR2
      000000EFH   SFRSYM    DATA     BYTE      AUXINTIF
      000000FDH   SFRSYM    DATA     BYTE      S4CON
      000000ACH   SFRSYM    DATA     BYTE      S3CON
      0000009AH   SFRSYM    DATA     BYTE      S2CON
      000000B7H   SFRSYM    DATA     BYTE      IPH
      000000CDH   SFRSYM    DATA     BYTE      SPSTAT
      000000DDH   SFRSYM    DATA     BYTE      T4T3M
      000000C1H   SFRSYM    DATA     BYTE      WDT_CONTR
      000000DFH   SFRSYM    DATA     BYTE      IP3
      000000F4H   SFRSYM    DATA     BYTE      USBCON
      000000B5H   SFRSYM    DATA     BYTE      IP2
      000000FFH   SFRSYM    DATA     BYTE      RSTCFG
      000000C7H   SFRSYM    DATA     BYTE      IAP_CONTR
      0000008EH   SFRSYM    DATA     BYTE      AUXR
      000000AFH   SFRSYM    DATA     BYTE      IE2
      00000088H   SFRSYM    DATA     BYTE      TCON
      00000089H   SFRSYM    DATA     BYTE      TMOD
      00000098H   SFRSYM    DATA     BYTE      SCON
      00000087H   SFRSYM    DATA     BYTE      PCON
      000000BCH   SFRSYM    DATA     BYTE      ADC_CONTR
      000000D1H   SFRSYM    DATA     BYTE      PSW1
      000000E7H   SFRSYM    DATA     BYTE      CMPCR2
      000000E6H   SFRSYM    DATA     BYTE      CMPCR1
      000000DEH   SFRSYM    DATA     BYTE      ADCCFG
      000000B8H   SFRSYM    DATA     BYTE      IP
      0000008FH   SFRSYM    DATA     BYTE      INTCLKO
      000000EEH   SFRSYM    DATA     BYTE      IP3H
      000000B6H   SFRSYM    DATA     BYTE      IP2H
      000000BFH   SFRSYM    DATA     BYTE      P_SW4
      000000A8H   SFRSYM    DATA     BYTE      IE
      000000BBH   SFRSYM    DATA     BYTE      P_SW3
      000000BAH   SFRSYM    DATA     BYTE      P_SW2
      000000A2H   SFRSYM    DATA     BYTE      P_SW1
      000000CEH   SFRSYM    DATA     BYTE      SPCTL
      000000F8H   SFRSYM    DATA     BYTE      P7
      000000E8H   SFRSYM    DATA     BYTE      P6
      000000C8H   SFRSYM    DATA     BYTE      P5
      000000C0H   SFRSYM    DATA     BYTE      P4
      000000ABH   SFRSYM    DATA     BYTE      WKTCH
      000000B0H   SFRSYM    DATA     BYTE      P3
      000000A0H   SFRSYM    DATA     BYTE      P2
      00000090H   SFRSYM    DATA     BYTE      P1
      00000080H   SFRSYM    DATA     BYTE      P0
      00FF0066H   SYMBOL    CODE     ---       layer_cb

      00FF0066H   BLOCK     CODE     ---       LVL=0
      00FF0066H   LINE      CODE     ---       #18
      00FF0066H   LINE      CODE     ---       #51
      00FF0068H   LINE      CODE     ---       #52
      ---         BLOCKEND  ---      ---       LVL=0

      00FF5449H   BLOCK     CODE     ---       LVL=0
      00FF5449H   LINE      CODE     ---       #54
      00FF5449H   LINE      CODE     ---       #56
      ---         BLOCKEND  ---      ---       LVL=0

      00FF5098H   BLOCK     CODE     ---       LVL=0
      REG=7       REGSYM    ---      ---       outs
      00FF509AH   BLOCK     CODE     NEAR LAB  LVL=1
      00000019H   SYMBOL    EDATA    ---       out
      REG=6       REGSYM    ---      ---       dat
      DR20        REGSYM    ---      FLOAT     maxp
      WR30        REGSYM    ---      INT       maxi
L251 LINKER/LOCATER V4.66.93.0                                                        03/11/2025  16:09:00  PAGE 24


      WR28        REGSYM    ---      INT       i
      ---         BLOCKEND  ---      ---       LVL=1
      00FF5098H   LINE      CODE     ---       #60
      00FF509AH   LINE      CODE     ---       #61
      00FF509AH   LINE      CODE     ---       #62
      00FF50A5H   LINE      CODE     ---       #63
      00FF50A9H   LINE      CODE     ---       #64
      00FF50ABH   LINE      CODE     ---       #65
      00FF50AFH   LINE      CODE     ---       #66
      00FF50B1H   LINE      CODE     ---       #67
      00FF50B1H   LINE      CODE     ---       #69
      00FF50C9H   LINE      CODE     ---       #71
      00FF50CBH   LINE      CODE     ---       #72
      00FF50D2H   LINE      CODE     ---       #73
      00FF50DAH   LINE      CODE     ---       #76
      00FF50DEH   LINE      CODE     ---       #77
      ---         BLOCKEND  ---      ---       LVL=0

      00FF4CB3H   BLOCK     CODE     ---       LVL=0
      00FF4CB3H   LINE      CODE     ---       #79
      00FF4CB3H   LINE      CODE     ---       #81
      00FF4CBBH   LINE      CODE     ---       #82
      00FF4CC3H   LINE      CODE     ---       #83
      00FF4CC7H   LINE      CODE     ---       #84
      00FF4CCFH   LINE      CODE     ---       #85
      00FF4CDBH   LINE      CODE     ---       #87
      00FF4CE3H   LINE      CODE     ---       #88
      00FF4CEBH   LINE      CODE     ---       #89
      00FF4CEFH   LINE      CODE     ---       #90
      00FF4CF7H   LINE      CODE     ---       #91
      00FF4CFDH   LINE      CODE     ---       #93
      00FF4D2CH   LINE      CODE     ---       #94
      00FF4D30H   LINE      CODE     ---       #96
      00FF4D43H   LINE      CODE     ---       #97
      00FF4D43H   LINE      CODE     ---       #98
      ---         BLOCKEND  ---      ---       LVL=0

      00FF51D5H   BLOCK     CODE     ---       LVL=0
      00FF51D5H   LINE      CODE     ---       #101
      00FF51D5H   LINE      CODE     ---       #103
      00FF51F0H   LINE      CODE     ---       #104
      00FF5203H   LINE      CODE     ---       #105
      ---         BLOCKEND  ---      ---       LVL=0

      ---         MODULE    ---      ---       canvas
      00FF5459H   PUBLIC    CODE     ---       clean_canvas
      00FF3BD9H   PUBLIC    CODE     ---       canvas_process_character
      00010930H   PUBLIC    XDATA    ---       canvas
      000000D0H   SFRSYM    DATA     BYTE      PSW
      0000009DH   SFRSYM    DATA     BYTE      IRCBAND
      00000097H   SFRSYM    DATA     BYTE      AUXR2
      000000EFH   SFRSYM    DATA     BYTE      AUXINTIF
      000000FDH   SFRSYM    DATA     BYTE      S4CON
      000000ACH   SFRSYM    DATA     BYTE      S3CON
      0000009AH   SFRSYM    DATA     BYTE      S2CON
      000000B7H   SFRSYM    DATA     BYTE      IPH
      000000CDH   SFRSYM    DATA     BYTE      SPSTAT
      000000DDH   SFRSYM    DATA     BYTE      T4T3M
      000000C1H   SFRSYM    DATA     BYTE      WDT_CONTR
      000000DFH   SFRSYM    DATA     BYTE      IP3
      000000F4H   SFRSYM    DATA     BYTE      USBCON
      000000B5H   SFRSYM    DATA     BYTE      IP2
      000000FFH   SFRSYM    DATA     BYTE      RSTCFG
      000000C7H   SFRSYM    DATA     BYTE      IAP_CONTR
      0000008EH   SFRSYM    DATA     BYTE      AUXR
L251 LINKER/LOCATER V4.66.93.0                                                        03/11/2025  16:09:00  PAGE 25


      000000AFH   SFRSYM    DATA     BYTE      IE2
      00000088H   SFRSYM    DATA     BYTE      TCON
      00000089H   SFRSYM    DATA     BYTE      TMOD
      00000098H   SFRSYM    DATA     BYTE      SCON
      00000087H   SFRSYM    DATA     BYTE      PCON
      000000BCH   SFRSYM    DATA     BYTE      ADC_CONTR
      000000D1H   SFRSYM    DATA     BYTE      PSW1
      000000E7H   SFRSYM    DATA     BYTE      CMPCR2
      000000E6H   SFRSYM    DATA     BYTE      CMPCR1
      000000DEH   SFRSYM    DATA     BYTE      ADCCFG
      000000B8H   SFRSYM    DATA     BYTE      IP
      0000008FH   SFRSYM    DATA     BYTE      INTCLKO
      000000EEH   SFRSYM    DATA     BYTE      IP3H
      000000B6H   SFRSYM    DATA     BYTE      IP2H
      000000BFH   SFRSYM    DATA     BYTE      P_SW4
      000000A8H   SFRSYM    DATA     BYTE      IE
      000000BBH   SFRSYM    DATA     BYTE      P_SW3
      000000BAH   SFRSYM    DATA     BYTE      P_SW2
      000000A2H   SFRSYM    DATA     BYTE      P_SW1
      000000CEH   SFRSYM    DATA     BYTE      SPCTL
      000000F8H   SFRSYM    DATA     BYTE      P7
      000000E8H   SFRSYM    DATA     BYTE      P6
      000000C8H   SFRSYM    DATA     BYTE      P5
      000000C0H   SFRSYM    DATA     BYTE      P4
      000000ABH   SFRSYM    DATA     BYTE      WKTCH
      000000B0H   SFRSYM    DATA     BYTE      P3
      000000A0H   SFRSYM    DATA     BYTE      P2
      00000090H   SFRSYM    DATA     BYTE      P1
      00000080H   SFRSYM    DATA     BYTE      P0

      00FF5459H   BLOCK     CODE     ---       LVL=0
      00FF5459H   LINE      CODE     ---       #8
      00FF5459H   LINE      CODE     ---       #10
      ---         BLOCKEND  ---      ---       LVL=0

      00FF3BD9H   BLOCK     CODE     ---       LVL=0
      DR12        REGSYM    ---      DWORD     start_col
      00000019H   SYMBOL    EDATA    DWORD     end_col
      00FF3BE1H   BLOCK     CODE     NEAR LAB  LVL=1
      0000001DH   SYMBOL    EDATA    DWORD     col
      00000021H   SYMBOL    EDATA    DWORD     row
      DR24        REGSYM    ---      DWORD     top_row
      DR20        REGSYM    ---      DWORD     bottom_row
      DR28        REGSYM    ---      DWORD     hor_offset
      DR20        REGSYM    ---      DWORD     ver_offset
      DR0         REGSYM    ---      DWORD     effective_height
      00FF3BEFH   BLOCK     CODE     NEAR LAB  LVL=2
      DR28        REGSYM    ---      DWORD     count
      ---         BLOCKEND  ---      ---       LVL=2
      00FF3D12H   BLOCK     CODE     NEAR LAB  LVL=2
      00000025H   SYMBOL    EDATA    DWORD     new_col
      DR16        REGSYM    ---      DWORD     new_row
      ---         BLOCKEND  ---      ---       LVL=2
      ---         BLOCKEND  ---      ---       LVL=1
      00FF3BD9H   LINE      CODE     ---       #14
      00FF3BE1H   LINE      CODE     ---       #15
      00FF3BE1H   LINE      CODE     ---       #22
      00FF3BEFH   LINE      CODE     ---       #23
      00FF3BEFH   LINE      CODE     ---       #24
      00FF3BF1H   LINE      CODE     ---       #25
      00FF3BF7H   LINE      CODE     ---       #27
      00FF3BFDH   LINE      CODE     ---       #29
      00FF3C22H   LINE      CODE     ---       #31
      00FF3C24H   LINE      CODE     ---       #32
      00FF3C32H   LINE      CODE     ---       #34
L251 LINKER/LOCATER V4.66.93.0                                                        03/11/2025  16:09:00  PAGE 26


      00FF3C40H   LINE      CODE     ---       #36
      00FF3C46H   LINE      CODE     ---       #38
      00FF3C4AH   LINE      CODE     ---       #39
      00FF3C4AH   LINE      CODE     ---       #42
      00FF3C4DH   LINE      CODE     ---       #45
      00FF3C64H   LINE      CODE     ---       #48
      00FF3C68H   LINE      CODE     ---       #49
      00FF3C6CH   LINE      CODE     ---       #50
      00FF3C70H   LINE      CODE     ---       #52
      00FF3C76H   LINE      CODE     ---       #54
      00FF3C9BH   LINE      CODE     ---       #56
      00FF3C9FH   LINE      CODE     ---       #57
      00FF3CA1H   LINE      CODE     ---       #58
      00FF3CA5H   LINE      CODE     ---       #59
      00FF3CA7H   LINE      CODE     ---       #60
      00FF3CA7H   LINE      CODE     ---       #61
      00FF3CB9H   LINE      CODE     ---       #62
      00FF3CC9H   LINE      CODE     ---       #65
      00FF3CCFH   LINE      CODE     ---       #68
      00FF3CE0H   LINE      CODE     ---       #71
      00FF3CE7H   LINE      CODE     ---       #73
      00FF3CEDH   LINE      CODE     ---       #75
      00FF3D12H   LINE      CODE     ---       #76
      00FF3D12H   LINE      CODE     ---       #78
      00FF3D1AH   LINE      CODE     ---       #79
      00FF3D1EH   LINE      CODE     ---       #82
      00FF3D24H   LINE      CODE     ---       #84
      00FF3D26H   LINE      CODE     ---       #85
      00FF3D28H   LINE      CODE     ---       #86
      00FF3D2EH   LINE      CODE     ---       #88
      00FF3D32H   LINE      CODE     ---       #89
      00FF3D32H   LINE      CODE     ---       #91
      00FF3D4CH   LINE      CODE     ---       #92
      00FF3D5CH   LINE      CODE     ---       #94
      00FF3D75H   LINE      CODE     ---       #107
      00FF3D76H   LINE      CODE     ---       #108
      ---         BLOCKEND  ---      ---       LVL=0

      ---         MODULE    ---      ---       expression
      00FF4F29H   PUBLIC    CODE     ---       expression_to_string
      00FF3438H   PUBLIC    CODE     ---       expression_calc
      00FF530AH   SYMBOL    CODE     ---       peek
      00FF532DH   SYMBOL    CODE     ---       getPriority
      00FF520AH   SYMBOL    CODE     ---       push
      00FF5162H   SYMBOL    CODE     ---       pop

      00FF520AH   BLOCK     CODE     ---       LVL=0
      REG=7       REGSYM    ---      ---       stack
      DR24        REGSYM    ---      FLOAT     value
      00FF520AH   LINE      CODE     ---       #13
      00FF520EH   LINE      CODE     ---       #14
      00FF521CH   LINE      CODE     ---       #15
      00FF523AH   LINE      CODE     ---       #16
      ---         BLOCKEND  ---      ---       LVL=0

      00FF5162H   BLOCK     CODE     ---       LVL=0
      REG=7       REGSYM    ---      ---       stack
      00FF5162H   LINE      CODE     ---       #19
      00FF5164H   LINE      CODE     ---       #20
      00FF5172H   LINE      CODE     ---       #21
      00FF519AH   LINE      CODE     ---       #22
      00FF519AH   LINE      CODE     ---       #23
      00FF519CH   LINE      CODE     ---       #24
      ---         BLOCKEND  ---      ---       LVL=0

L251 LINKER/LOCATER V4.66.93.0                                                        03/11/2025  16:09:00  PAGE 27


      00FF530AH   BLOCK     CODE     ---       LVL=0
      REG=2       REGSYM    ---      ---       stack
      00FF530AH   LINE      CODE     ---       #26
      00FF530CH   LINE      CODE     ---       #27
      00FF531AH   LINE      CODE     ---       #28
      00FF532AH   LINE      CODE     ---       #29
      00FF532AH   LINE      CODE     ---       #30
      00FF532CH   LINE      CODE     ---       #31
      ---         BLOCKEND  ---      ---       LVL=0

      00FF532DH   BLOCK     CODE     ---       LVL=0
      R7          REGSYM    ---      BYTE      op
      00FF532DH   LINE      CODE     ---       #33
      00FF532FH   LINE      CODE     ---       #34
      00FF5338H   LINE      CODE     ---       #35
      00FF533DH   LINE      CODE     ---       #36
      00FF533DH   LINE      CODE     ---       #37
      00FF5346H   LINE      CODE     ---       #38
      00FF534BH   LINE      CODE     ---       #39
      00FF534BH   LINE      CODE     ---       #40
      00FF534DH   LINE      CODE     ---       #41
      ---         BLOCKEND  ---      ---       LVL=0

      00FF3438H   BLOCK     CODE     ---       LVL=0
      00000019H   SYMBOL    EDATA    ---       item
      0000001DH   SYMBOL    EDATA    BYTE      n
      00FF3442H   BLOCK     CODE     NEAR LAB  LVL=1
      0000001EH   SYMBOL    EDATA    ---       numStack
      00000062H   SYMBOL    EDATA    ---       opStack
      000000A6H   SYMBOL    EDATA    FLOAT     current
      000000AAH   SYMBOL    EDATA    FLOAT     left
      000000AEH   SYMBOL    EDATA    FLOAT     right
      000000B2H   SYMBOL    EDATA    BYTE      op
      000000B3H   SYMBOL    EDATA    BYTE      i
      00FF3485H   BLOCK     CODE     NEAR LAB  LVL=2
      000000B4H   SYMBOL    EDATA    LONG      number
      ---         BLOCKEND  ---      ---       LVL=2
      ---         BLOCKEND  ---      ---       LVL=1
      00FF3438H   LINE      CODE     ---       #43
      00FF3442H   LINE      CODE     ---       #48
      00FF344AH   LINE      CODE     ---       #49
      00FF344EH   LINE      CODE     ---       #51
      00FF344EH   LINE      CODE     ---       #53
      00FF344FH   LINE      CODE     ---       #54
      00FF3452H   LINE      CODE     ---       #55
      00FF346BH   LINE      CODE     ---       #58
      00FF3485H   LINE      CODE     ---       #60
      00FF348EH   LINE      CODE     ---       #61
      00FF3490H   LINE      CODE     ---       #62
      00FF3492H   LINE      CODE     ---       #63
      00FF34B4H   LINE      CODE     ---       #64
      00FF34B9H   LINE      CODE     ---       #65
      00FF34DAH   LINE      CODE     ---       #66
      00FF34EAH   LINE      CODE     ---       #67
      00FF34EDH   LINE      CODE     ---       #69
      00FF3511H   LINE      CODE     ---       #70
      00FF3514H   LINE      CODE     ---       #71
      00FF351FH   LINE      CODE     ---       #72
      00FF352AH   LINE      CODE     ---       #73
      00FF3538H   LINE      CODE     ---       #75
      00FF354AH   LINE      CODE     ---       #76
      00FF3557H   LINE      CODE     ---       #77
      00FF3564H   LINE      CODE     ---       #78
      00FF3571H   LINE      CODE     ---       #79
      00FF3571H   LINE      CODE     ---       #80
L251 LINKER/LOCATER V4.66.93.0                                                        03/11/2025  16:09:00  PAGE 28


      00FF357BH   LINE      CODE     ---       #81
      00FF357BH   LINE      CODE     ---       #82
      00FF357EH   LINE      CODE     ---       #83
      00FF357EH   LINE      CODE     ---       #84
      00FF358BH   LINE      CODE     ---       #85
      00FF358BH   LINE      CODE     ---       #86
      00FF3596H   LINE      CODE     ---       #87
      00FF35C4H   LINE      CODE     ---       #88
      00FF35CFH   LINE      CODE     ---       #89
      00FF35D8H   LINE      CODE     ---       #90
      00FF35E5H   LINE      CODE     ---       #94
      00FF35E8H   LINE      CODE     ---       #95
      00FF35F3H   LINE      CODE     ---       #96
      00FF35FEH   LINE      CODE     ---       #97
      00FF360CH   LINE      CODE     ---       #99
      00FF361EH   LINE      CODE     ---       #100
      00FF362BH   LINE      CODE     ---       #101
      00FF3638H   LINE      CODE     ---       #102
      00FF3645H   LINE      CODE     ---       #103
      00FF3645H   LINE      CODE     ---       #104
      00FF364FH   LINE      CODE     ---       #105
      00FF365AH   LINE      CODE     ---       #106
      00FF365EH   LINE      CODE     ---       #107
      00FF365EH   LINE      CODE     ---       #108
      00FF366BH   LINE      CODE     ---       #109
      00FF366BH   LINE      CODE     ---       #110
      00FF3676H   LINE      CODE     ---       #111
      00FF3683H   LINE      CODE     ---       #113
      00FF368AH   LINE      CODE     ---       #114
      ---         BLOCKEND  ---      ---       LVL=0

      00FF4F29H   BLOCK     CODE     ---       LVL=0
      REG=7       REGSYM    ---      ---       expression
      R9          REGSYM    ---      BYTE      expr_length
      REG=6       REGSYM    ---      ---       buffer
      00FF4F31H   BLOCK     CODE     NEAR LAB  LVL=1
      R8          REGSYM    ---      BYTE      i
      R10         REGSYM    ---      BYTE      buffer_index
      00FF4F37H   BLOCK     CODE     NEAR LAB  LVL=2
      R15         REGSYM    ---      CHAR      ch
      ---         BLOCKEND  ---      ---       LVL=2
      ---         BLOCKEND  ---      ---       LVL=1
      00FF4F29H   LINE      CODE     ---       #117
      00FF4F31H   LINE      CODE     ---       #119
      00FF4F33H   LINE      CODE     ---       #122
      00FF4F37H   LINE      CODE     ---       #126
      00FF4F4AH   LINE      CODE     ---       #127
      00FF4F50H   LINE      CODE     ---       #128
      00FF4F56H   LINE      CODE     ---       #129
      00FF4F59H   LINE      CODE     ---       #130
      00FF4F5FH   LINE      CODE     ---       #131
      00FF4F62H   LINE      CODE     ---       #132
      00FF4F68H   LINE      CODE     ---       #133
      00FF4F6BH   LINE      CODE     ---       #134
      00FF4F71H   LINE      CODE     ---       #135
      00FF4F74H   LINE      CODE     ---       #136
      00FF4F74H   LINE      CODE     ---       #138
      00FF4F74H   LINE      CODE     ---       #139
      00FF4F74H   LINE      CODE     ---       #140
      00FF4F81H   LINE      CODE     ---       #141
      00FF4F87H   LINE      CODE     ---       #144
      00FF4F91H   LINE      CODE     ---       #145
      ---         BLOCKEND  ---      ---       LVL=0

      ---         MODULE    ---      ---       sys
L251 LINKER/LOCATER V4.66.93.0                                                        03/11/2025  16:09:00  PAGE 29


      00FF53F6H   PUBLIC    CODE     ---       delay_ms
      000000D0H   SFRSYM    DATA     BYTE      PSW
      0000009DH   SFRSYM    DATA     BYTE      IRCBAND
      00000097H   SFRSYM    DATA     BYTE      AUXR2
      000000EFH   SFRSYM    DATA     BYTE      AUXINTIF
      000000FDH   SFRSYM    DATA     BYTE      S4CON
      000000ACH   SFRSYM    DATA     BYTE      S3CON
      0000009AH   SFRSYM    DATA     BYTE      S2CON
      000000B7H   SFRSYM    DATA     BYTE      IPH
      000000CDH   SFRSYM    DATA     BYTE      SPSTAT
      000000DDH   SFRSYM    DATA     BYTE      T4T3M
      000000C1H   SFRSYM    DATA     BYTE      WDT_CONTR
      000000DFH   SFRSYM    DATA     BYTE      IP3
      000000F4H   SFRSYM    DATA     BYTE      USBCON
      000000B5H   SFRSYM    DATA     BYTE      IP2
      000000FFH   SFRSYM    DATA     BYTE      RSTCFG
      000000C7H   SFRSYM    DATA     BYTE      IAP_CONTR
      0000008EH   SFRSYM    DATA     BYTE      AUXR
      000000AFH   SFRSYM    DATA     BYTE      IE2
      00000088H   SFRSYM    DATA     BYTE      TCON
      00000089H   SFRSYM    DATA     BYTE      TMOD
      00000098H   SFRSYM    DATA     BYTE      SCON
      00000087H   SFRSYM    DATA     BYTE      PCON
      000000BCH   SFRSYM    DATA     BYTE      ADC_CONTR
      000000D1H   SFRSYM    DATA     BYTE      PSW1
      000000E7H   SFRSYM    DATA     BYTE      CMPCR2
      000000E6H   SFRSYM    DATA     BYTE      CMPCR1
      000000DEH   SFRSYM    DATA     BYTE      ADCCFG
      000000B8H   SFRSYM    DATA     BYTE      IP
      0000008FH   SFRSYM    DATA     BYTE      INTCLKO
      000000EEH   SFRSYM    DATA     BYTE      IP3H
      000000B6H   SFRSYM    DATA     BYTE      IP2H
      000000BFH   SFRSYM    DATA     BYTE      P_SW4
      000000A8H   SFRSYM    DATA     BYTE      IE
      000000BBH   SFRSYM    DATA     BYTE      P_SW3
      000000BAH   SFRSYM    DATA     BYTE      P_SW2
      000000A2H   SFRSYM    DATA     BYTE      P_SW1
      000000CEH   SFRSYM    DATA     BYTE      SPCTL
      000000F8H   SFRSYM    DATA     BYTE      P7
      000000E8H   SFRSYM    DATA     BYTE      P6
      000000C8H   SFRSYM    DATA     BYTE      P5
      000000C0H   SFRSYM    DATA     BYTE      P4
      000000ABH   SFRSYM    DATA     BYTE      WKTCH
      000000B0H   SFRSYM    DATA     BYTE      P3
      000000A0H   SFRSYM    DATA     BYTE      P2
      00000090H   SFRSYM    DATA     BYTE      P1
      00000080H   SFRSYM    DATA     BYTE      P0

      00FF53F6H   BLOCK     CODE     ---       LVL=0
      WR4         REGSYM    ---      INT       count
      00FF53F8H   BLOCK     CODE     NEAR LAB  LVL=1
      WR6         REGSYM    ---      WORD      i
      ---         BLOCKEND  ---      ---       LVL=1
      00FF53F6H   LINE      CODE     ---       #31
      00FF53F8H   LINE      CODE     ---       #32
      00FF53F8H   LINE      CODE     ---       #34
      00FF53F8H   LINE      CODE     ---       #35
      00FF53FCH   LINE      CODE     ---       #36
      00FF5404H   LINE      CODE     ---       #37
      00FF540CH   LINE      CODE     ---       #38
      ---         BLOCKEND  ---      ---       LVL=0
      WR4         REGSYM    ---      INT       count
      WR6         REGSYM    ---      INT       i

      ---         MODULE    ---      ---       LCD
L251 LINKER/LOCATER V4.66.93.0                                                        03/11/2025  16:09:00  PAGE 30


      00FF53A8H   PUBLIC    CODE     ---       LCM_Interrupt
      00FF534EH   PUBLIC    CODE     ---       LCM_Config
      00FF5268H   PUBLIC    CODE     ---       LCD_WR_REG
      00FF50DFH   PUBLIC    CODE     ---       LCD_Clear
      00FF5438H   PUBLIC    CODE     ---       LCD_WR_DATA_16Bit
      00FF2F67H   PUBLIC    CODE     ---       LCD_Init
      00FF5478H   PUBLIC    CODE     ---       LCD_DrawPoint
      00FF0003H   PUBLIC    CODE     ---       LCD_SetWindows
      00FF005FH   PUBLIC    CODE     ---       LCD_WriteRAM_Prepare
      00FF5294H   PUBLIC    CODE     ---       LCD_WR_DATA
      00FF53DDH   PUBLIC    CODE     ---       LCDReset
      00FF5469H   PUBLIC    CODE     ---       LCD_WriteReg
      00FF52C0H   PUBLIC    CODE     ---       LCD_Set_GPIO
      00FF4B82H   PUBLIC    CODE     ---       LCD_direction
      0000013BH   PUBLIC    EDATA    WORD      POINT_COLOR
      0000013DH   PUBLIC    EDATA    WORD      BACK_COLOR
      0000013FH   PUBLIC    EDATA    ---       lcddev
      00000094H   SFRSYM    DATA     BYTE      P0M0
      000000D0H   SFRSYM    DATA     BYTE      PSW
      0000009DH   SFRSYM    DATA     BYTE      IRCBAND
      00000097H   SFRSYM    DATA     BYTE      AUXR2
      000000EFH   SFRSYM    DATA     BYTE      AUXINTIF
      000000FDH   SFRSYM    DATA     BYTE      S4CON
      000000ACH   SFRSYM    DATA     BYTE      S3CON
      0000009AH   SFRSYM    DATA     BYTE      S2CON
      000000B7H   SFRSYM    DATA     BYTE      IPH
      000000CDH   SFRSYM    DATA     BYTE      SPSTAT
      000000DDH   SFRSYM    DATA     BYTE      T4T3M
      000000C1H   SFRSYM    DATA     BYTE      WDT_CONTR
      000000DFH   SFRSYM    DATA     BYTE      IP3
      000000F4H   SFRSYM    DATA     BYTE      USBCON
      000000B5H   SFRSYM    DATA     BYTE      IP2
      000000FFH   SFRSYM    DATA     BYTE      RSTCFG
      00000080H.5 SFRSYM    DATA     BIT       LCD_CS
      000000C7H   SFRSYM    DATA     BYTE      IAP_CONTR
      0000008EH   SFRSYM    DATA     BYTE      AUXR
      000000AFH   SFRSYM    DATA     BYTE      IE2
      000000C0H.7 SFRSYM    DATA     BIT       LCD_RESET
      00000088H   SFRSYM    DATA     BYTE      TCON
      00000089H   SFRSYM    DATA     BYTE      TMOD
      00000098H   SFRSYM    DATA     BYTE      SCON
      00000087H   SFRSYM    DATA     BYTE      PCON
      000000BCH   SFRSYM    DATA     BYTE      ADC_CONTR
      000000D1H   SFRSYM    DATA     BYTE      PSW1
      000000E7H   SFRSYM    DATA     BYTE      CMPCR2
      000000E6H   SFRSYM    DATA     BYTE      CMPCR1
      000000DEH   SFRSYM    DATA     BYTE      ADCCFG
      000000B8H   SFRSYM    DATA     BYTE      IP
      0000008FH   SFRSYM    DATA     BYTE      INTCLKO
      000000EEH   SFRSYM    DATA     BYTE      IP3H
      000000B6H   SFRSYM    DATA     BYTE      IP2H
      000000BFH   SFRSYM    DATA     BYTE      P_SW4
      000000A8H   SFRSYM    DATA     BYTE      IE
      000000BBH   SFRSYM    DATA     BYTE      P_SW3
      000000BAH   SFRSYM    DATA     BYTE      P_SW2
      000000A2H   SFRSYM    DATA     BYTE      P_SW1
      000000CEH   SFRSYM    DATA     BYTE      SPCTL
      000000F8H   SFRSYM    DATA     BYTE      P7
      000000A8H.7 SFRSYM    DATA     BIT       EA
      000000E8H   SFRSYM    DATA     BYTE      P6
      000000C8H   SFRSYM    DATA     BYTE      P5
      000000C0H   SFRSYM    DATA     BYTE      P4
      000000C9H   SFRSYM    DATA     BYTE      P5M1
      000000ABH   SFRSYM    DATA     BYTE      WKTCH
      000000B0H   SFRSYM    DATA     BYTE      P3
L251 LINKER/LOCATER V4.66.93.0                                                        03/11/2025  16:09:00  PAGE 31


      000000B3H   SFRSYM    DATA     BYTE      P4M1
      000000CAH   SFRSYM    DATA     BYTE      P5M0
      000000A0H   SFRSYM    DATA     BYTE      P2
      000000B1H   SFRSYM    DATA     BYTE      P3M1
      000000B4H   SFRSYM    DATA     BYTE      P4M0
      00000090H   SFRSYM    DATA     BYTE      P1
      00000095H   SFRSYM    DATA     BYTE      P2M1
      000000B2H   SFRSYM    DATA     BYTE      P3M0
      00000080H   SFRSYM    DATA     BYTE      P0
      00000091H   SFRSYM    DATA     BYTE      P1M1
      00000096H   SFRSYM    DATA     BYTE      P2M0
      00000092H   SFRSYM    DATA     BYTE      P1M0
      00000093H   SFRSYM    DATA     BYTE      P0M1
      00FF69F3H   SYMBOL    HCONST   ---       ?tpl?0001

      00FF534EH   BLOCK     CODE     ---       LVL=0
      00FF534EH   LINE      CODE     ---       #11
      00FF534EH   LINE      CODE     ---       #13
      00FF535AH   LINE      CODE     ---       #14
      00FF5363H   LINE      CODE     ---       #15
      00FF536BH   LINE      CODE     ---       #16
      00FF536DH   LINE      CODE     ---       #17
      ---         BLOCKEND  ---      ---       LVL=0

      00FF53A8H   BLOCK     CODE     ---       LVL=0
      00FF53A8H   LINE      CODE     ---       #19
      00FF53AEH   LINE      CODE     ---       #21
      00FF53BAH   LINE      CODE     ---       #22
      00FF53BCH   LINE      CODE     ---       #23
      ---         BLOCKEND  ---      ---       LVL=0

      00FF5268H   BLOCK     CODE     ---       LVL=0
      WR6         REGSYM    ---      WORD      Reg
      00FF5268H   LINE      CODE     ---       #26
      00FF5268H   LINE      CODE     ---       #28
      00FF5275H   LINE      CODE     ---       #29
      00FF5277H   LINE      CODE     ---       #30
      00FF5280H   LINE      CODE     ---       #31
      00FF528DH   LINE      CODE     ---       #32
      00FF5291H   LINE      CODE     ---       #33
      00FF5293H   LINE      CODE     ---       #34
      ---         BLOCKEND  ---      ---       LVL=0

      00FF5294H   BLOCK     CODE     ---       LVL=0
      WR6         REGSYM    ---      WORD      Data
      00FF5294H   LINE      CODE     ---       #37
      00FF5294H   LINE      CODE     ---       #39
      00FF52A1H   LINE      CODE     ---       #40
      00FF52A3H   LINE      CODE     ---       #41
      00FF52ACH   LINE      CODE     ---       #42
      00FF52B9H   LINE      CODE     ---       #43
      00FF52BDH   LINE      CODE     ---       #44
      00FF52BFH   LINE      CODE     ---       #45
      ---         BLOCKEND  ---      ---       LVL=0
      WR6         REGSYM    ---      WORD      d

      00FF5438H   BLOCK     CODE     ---       LVL=0
      WR14        REGSYM    ---      WORD      Data
      00FF5438H   LINE      CODE     ---       #63
      00FF543CH   LINE      CODE     ---       #65
      00FF5441H   LINE      CODE     ---       #66
      00FF5446H   LINE      CODE     ---       #67
      ---         BLOCKEND  ---      ---       LVL=0
      R5          REGSYM    ---      BYTE      r
      R7          REGSYM    ---      BYTE      g
L251 LINKER/LOCATER V4.66.93.0                                                        03/11/2025  16:09:00  PAGE 32


      R10         REGSYM    ---      BYTE      b
      WR12        REGSYM    ---      WORD      r
      WR14        REGSYM    ---      WORD      g
      WR4         REGSYM    ---      WORD      b

      00FF5469H   BLOCK     CODE     ---       LVL=0
      WR6         REGSYM    ---      WORD      LCD_Reg
      WR14        REGSYM    ---      WORD      LCD_RegValue
      00FF5469H   LINE      CODE     ---       #96
      00FF546DH   LINE      CODE     ---       #98
      00FF5470H   LINE      CODE     ---       #99
      00FF5475H   LINE      CODE     ---       #100
      ---         BLOCKEND  ---      ---       LVL=0
      WR6         REGSYM    ---      WORD      LCD_Reg
      REG=3       REGSYM    ---      ---       Rval

      00FF005FH   BLOCK     CODE     ---       LVL=0
      00FF005FH   LINE      CODE     ---       #113
      00FF005FH   LINE      CODE     ---       #115
      ---         BLOCKEND  ---      ---       LVL=0

      00FF50DFH   BLOCK     CODE     ---       LVL=0
      WR14        REGSYM    ---      WORD      Color
      00FF50E3H   BLOCK     CODE     NEAR LAB  LVL=1
      WR12        REGSYM    ---      WORD      i
      00000008H   SYMBOL    EDATA    WORD      j
      ---         BLOCKEND  ---      ---       LVL=1
      00FF50DFH   LINE      CODE     ---       #125
      00FF50E3H   LINE      CODE     ---       #126
      00FF50E3H   LINE      CODE     ---       #128
      00FF50F6H   LINE      CODE     ---       #129
      00FF50FAH   LINE      CODE     ---       #131
      00FF50FEH   LINE      CODE     ---       #133
      00FF5103H   LINE      CODE     ---       #134
      00FF5117H   LINE      CODE     ---       #135
      00FF5121H   LINE      CODE     ---       #136
      ---         BLOCKEND  ---      ---       LVL=0

      00FF5478H   BLOCK     CODE     ---       LVL=0
      WR2         REGSYM    ---      WORD      x
      WR0         REGSYM    ---      WORD      y
      00FF5478H   LINE      CODE     ---       #139
      00FF547CH   LINE      CODE     ---       #141
      00FF547FH   LINE      CODE     ---       #142
      ---         BLOCKEND  ---      ---       LVL=0
      WR2         REGSYM    ---      WORD      x
      WR4         REGSYM    ---      WORD      y
      WR6         REGSYM    ---      WORD      color

      00FF52C0H   BLOCK     CODE     ---       LVL=0
      00FF52C0H   LINE      CODE     ---       #160
      00FF52C0H   LINE      CODE     ---       #163
      00FF52C3H   LINE      CODE     ---       #164
      00FF52C6H   LINE      CODE     ---       #167
      00FF52C9H   LINE      CODE     ---       #168
      00FF52CCH   LINE      CODE     ---       #171
      00FF52CFH   LINE      CODE     ---       #172
      00FF52D2H   LINE      CODE     ---       #180
      00FF52D5H   LINE      CODE     ---       #181
      00FF52D8H   LINE      CODE     ---       #184
      00FF52DBH   LINE      CODE     ---       #185
      00FF52DEH   LINE      CODE     ---       #188
      00FF52E1H   LINE      CODE     ---       #189
      00FF52E4H   LINE      CODE     ---       #190
      ---         BLOCKEND  ---      ---       LVL=0
L251 LINKER/LOCATER V4.66.93.0                                                        03/11/2025  16:09:00  PAGE 33



      00FF53DDH   BLOCK     CODE     ---       LVL=0
      00FF53DDH   LINE      CODE     ---       #193
      00FF53DDH   LINE      CODE     ---       #195
      00FF53E4H   LINE      CODE     ---       #196
      00FF53E6H   LINE      CODE     ---       #197
      00FF53EDH   LINE      CODE     ---       #198
      00FF53EFH   LINE      CODE     ---       #199
      ---         BLOCKEND  ---      ---       LVL=0

      00FF2F67H   BLOCK     CODE     ---       LVL=0
      00FF2F67H   LINE      CODE     ---       #203
      00FF2F67H   LINE      CODE     ---       #205
      00FF2F6AH   LINE      CODE     ---       #206
      00FF2F6DH   LINE      CODE     ---       #207
      00FF2F70H   LINE      CODE     ---       #209
      00FF2F77H   LINE      CODE     ---       #210
      00FF2F7CH   LINE      CODE     ---       #211
      00FF2F83H   LINE      CODE     ---       #212
      00FF2F8AH   LINE      CODE     ---       #213
      00FF2F91H   LINE      CODE     ---       #214
      00FF2F98H   LINE      CODE     ---       #215
      00FF2F9FH   LINE      CODE     ---       #216
      00FF2FA6H   LINE      CODE     ---       #217
      00FF2FADH   LINE      CODE     ---       #218
      00FF2FB4H   LINE      CODE     ---       #219
      00FF2FBBH   LINE      CODE     ---       #220
      00FF2FC2H   LINE      CODE     ---       #221
      00FF2FC9H   LINE      CODE     ---       #222
      00FF2FD0H   LINE      CODE     ---       #223
      00FF2FD7H   LINE      CODE     ---       #224
      00FF2FDEH   LINE      CODE     ---       #225
      00FF2FE3H   LINE      CODE     ---       #226
      00FF2FEAH   LINE      CODE     ---       #227
      00FF2FF1H   LINE      CODE     ---       #228
      00FF2FF8H   LINE      CODE     ---       #229
      00FF2FFFH   LINE      CODE     ---       #230
      00FF3006H   LINE      CODE     ---       #231
      00FF300BH   LINE      CODE     ---       #232
      00FF3010H   LINE      CODE     ---       #233
      00FF3017H   LINE      CODE     ---       #234
      00FF301EH   LINE      CODE     ---       #235
      00FF3025H   LINE      CODE     ---       #236
      00FF302CH   LINE      CODE     ---       #237
      00FF3033H   LINE      CODE     ---       #238
      00FF303AH   LINE      CODE     ---       #239
      00FF3041H   LINE      CODE     ---       #240
      00FF3048H   LINE      CODE     ---       #241
      00FF304FH   LINE      CODE     ---       #242
      00FF3056H   LINE      CODE     ---       #243
      00FF305DH   LINE      CODE     ---       #244
      00FF3064H   LINE      CODE     ---       #245
      00FF306BH   LINE      CODE     ---       #246
      00FF3072H   LINE      CODE     ---       #247
      00FF3077H   LINE      CODE     ---       #248
      00FF307EH   LINE      CODE     ---       #249
      00FF3085H   LINE      CODE     ---       #250
      00FF308CH   LINE      CODE     ---       #251
      00FF3093H   LINE      CODE     ---       #252
      00FF309AH   LINE      CODE     ---       #253
      00FF309FH   LINE      CODE     ---       #254
      00FF30A6H   LINE      CODE     ---       #255
      00FF30ADH   LINE      CODE     ---       #256
      00FF30B4H   LINE      CODE     ---       #257
      00FF30BBH   LINE      CODE     ---       #258
L251 LINKER/LOCATER V4.66.93.0                                                        03/11/2025  16:09:00  PAGE 34


      00FF30C2H   LINE      CODE     ---       #259
      00FF30C9H   LINE      CODE     ---       #260
      00FF30D0H   LINE      CODE     ---       #261
      00FF30D7H   LINE      CODE     ---       #262
      00FF30DEH   LINE      CODE     ---       #263
      00FF30E5H   LINE      CODE     ---       #264
      00FF30ECH   LINE      CODE     ---       #265
      00FF30F3H   LINE      CODE     ---       #266
      00FF30FAH   LINE      CODE     ---       #267
      00FF3101H   LINE      CODE     ---       #268
      00FF3108H   LINE      CODE     ---       #269
      00FF310FH   LINE      CODE     ---       #270
      00FF3116H   LINE      CODE     ---       #271
      00FF311DH   LINE      CODE     ---       #272
      00FF3124H   LINE      CODE     ---       #273
      00FF3129H   LINE      CODE     ---       #274
      00FF3130H   LINE      CODE     ---       #275
      00FF3137H   LINE      CODE     ---       #276
      00FF313EH   LINE      CODE     ---       #277
      00FF3145H   LINE      CODE     ---       #278
      00FF314CH   LINE      CODE     ---       #279
      00FF3153H   LINE      CODE     ---       #280
      00FF315AH   LINE      CODE     ---       #281
      00FF3161H   LINE      CODE     ---       #282
      00FF3168H   LINE      CODE     ---       #283
      00FF316FH   LINE      CODE     ---       #284
      00FF3176H   LINE      CODE     ---       #285
      00FF317DH   LINE      CODE     ---       #286
      00FF3184H   LINE      CODE     ---       #287
      00FF318BH   LINE      CODE     ---       #288
      00FF3192H   LINE      CODE     ---       #289
      00FF3197H   LINE      CODE     ---       #290
      00FF319CH   LINE      CODE     ---       #291
      00FF31A3H   LINE      CODE     ---       #292
      00FF31AAH   LINE      CODE     ---       #293
      00FF31B1H   LINE      CODE     ---       #294
      00FF31B6H   LINE      CODE     ---       #295
      00FF31BBH   LINE      CODE     ---       #296
      00FF31C0H   LINE      CODE     ---       #297
      00FF31C7H   LINE      CODE     ---       #298
      00FF31CEH   LINE      CODE     ---       #299
      00FF31D5H   LINE      CODE     ---       #300
      00FF31DCH   LINE      CODE     ---       #303
      ---         BLOCKEND  ---      ---       LVL=0

      00FF0003H   BLOCK     CODE     ---       LVL=0
      00000030H   SYMBOL    EDATA    WORD      xStar
      00000032H   SYMBOL    EDATA    WORD      yStar
      WR12        REGSYM    ---      WORD      xEnd
      WR14        REGSYM    ---      WORD      yEnd
      00FF0003H   LINE      CODE     ---       #308
      00FF000FH   LINE      CODE     ---       #310
      00FF0016H   LINE      CODE     ---       #311
      00FF001FH   LINE      CODE     ---       #312
      00FF0028H   LINE      CODE     ---       #313
      00FF002DH   LINE      CODE     ---       #314
      00FF0034H   LINE      CODE     ---       #316
      00FF003BH   LINE      CODE     ---       #317
      00FF0044H   LINE      CODE     ---       #318
      00FF004DH   LINE      CODE     ---       #319
      00FF0052H   LINE      CODE     ---       #320
      00FF0059H   LINE      CODE     ---       #322
      00FF005CH   LINE      CODE     ---       #323
      ---         BLOCKEND  ---      ---       LVL=0
      WR2         REGSYM    ---      WORD      Xpos
L251 LINKER/LOCATER V4.66.93.0                                                        03/11/2025  16:09:00  PAGE 35


      WR0         REGSYM    ---      WORD      Ypos

      00FF4B82H   BLOCK     CODE     ---       LVL=0
      R5          REGSYM    ---      BYTE      direction
      00FF4B82H   LINE      CODE     ---       #332
      00FF4B84H   LINE      CODE     ---       #334
      00FF4B8CH   LINE      CODE     ---       #335
      00FF4B94H   LINE      CODE     ---       #336
      00FF4B9CH   LINE      CODE     ---       #337
      00FF4BA4H   LINE      CODE     ---       #338
      00FF4BB5H   LINE      CODE     ---       #339
      00FF4BB5H   LINE      CODE     ---       #340
      00FF4BBDH   LINE      CODE     ---       #341
      00FF4BC5H   LINE      CODE     ---       #342
      00FF4BCDH   LINE      CODE     ---       #343
      00FF4BCFH   LINE      CODE     ---       #344
      00FF4BCFH   LINE      CODE     ---       #345
      00FF4BD7H   LINE      CODE     ---       #346
      00FF4BDFH   LINE      CODE     ---       #347
      00FF4BE7H   LINE      CODE     ---       #348
      00FF4BE9H   LINE      CODE     ---       #349
      00FF4BE9H   LINE      CODE     ---       #350
      00FF4BF1H   LINE      CODE     ---       #351
      00FF4BF9H   LINE      CODE     ---       #352
      00FF4C01H   LINE      CODE     ---       #353
      00FF4C03H   LINE      CODE     ---       #354
      00FF4C03H   LINE      CODE     ---       #355
      00FF4C0BH   LINE      CODE     ---       #356
      00FF4C13H   LINE      CODE     ---       #357
      00FF4C1EH   LINE      CODE     ---       #358
      00FF4C1EH   LINE      CODE     ---       #359
      00FF4C1EH   LINE      CODE     ---       #360
      00FF4C1EH   LINE      CODE     ---       #361
      ---         BLOCKEND  ---      ---       LVL=0

      ---         MODULE    ---      ---       touch
      00FF538CH   PUBLIC    CODE     ---       ReadFromCharFrom7843
      00FF540DH   PUBLIC    CODE     ---       ADS_Read_AD
      00FF536EH   PUBLIC    CODE     ---       WriteCharTo7843
      00FF519DH   PUBLIC    CODE     ---       Read_ADS
      00FF4C1FH   PUBLIC    CODE     ---       ADS_Read_XY
      00FF4997H   PUBLIC    CODE     ---       Read_ADS2
      00FF523BH   PUBLIC    CODE     ---       TP_Draw_Big_Point
      00FF4AE2H   PUBLIC    CODE     ---       Convert_Pos
      0000014EH   PUBLIC    EDATA    WORD      chx
      00000150H   PUBLIC    EDATA    WORD      chy
      00000152H   PUBLIC    EDATA    ---       tp_pixlcd
      00000156H   PUBLIC    EDATA    ---       tp_pixad
      0000015AH   PUBLIC    EDATA    WORD      vx
      0000015CH   PUBLIC    EDATA    WORD      vy
      000000D0H   SFRSYM    DATA     BYTE      PSW
      0000009DH   SFRSYM    DATA     BYTE      IRCBAND
      00000097H   SFRSYM    DATA     BYTE      AUXR2
      00000090H.4 SFRSYM    DATA     BIT       Penirq
      000000EFH   SFRSYM    DATA     BYTE      AUXINTIF
      00000090H.5 SFRSYM    DATA     BIT       TCS
      000000FDH   SFRSYM    DATA     BYTE      S4CON
      000000ACH   SFRSYM    DATA     BYTE      S3CON
      0000009AH   SFRSYM    DATA     BYTE      S2CON
      000000B7H   SFRSYM    DATA     BYTE      IPH
      000000CDH   SFRSYM    DATA     BYTE      SPSTAT
      000000DDH   SFRSYM    DATA     BYTE      T4T3M
      000000B0H.4 SFRSYM    DATA     BIT       DIN
      000000C1H   SFRSYM    DATA     BYTE      WDT_CONTR
      000000DFH   SFRSYM    DATA     BYTE      IP3
L251 LINKER/LOCATER V4.66.93.0                                                        03/11/2025  16:09:00  PAGE 36


      000000F4H   SFRSYM    DATA     BYTE      USBCON
      000000B5H   SFRSYM    DATA     BYTE      IP2
      000000FFH   SFRSYM    DATA     BYTE      RSTCFG
      000000C7H   SFRSYM    DATA     BYTE      IAP_CONTR
      0000008EH   SFRSYM    DATA     BYTE      AUXR
      000000AFH   SFRSYM    DATA     BYTE      IE2
      000000B0H.3 SFRSYM    DATA     BIT       DOUT
      00000088H   SFRSYM    DATA     BYTE      TCON
      00000089H   SFRSYM    DATA     BYTE      TMOD
      00000098H   SFRSYM    DATA     BYTE      SCON
      00000087H   SFRSYM    DATA     BYTE      PCON
      000000BCH   SFRSYM    DATA     BYTE      ADC_CONTR
      000000D1H   SFRSYM    DATA     BYTE      PSW1
      000000E7H   SFRSYM    DATA     BYTE      CMPCR2
      000000E6H   SFRSYM    DATA     BYTE      CMPCR1
      000000B0H.2 SFRSYM    DATA     BIT       DCLK
      000000D0H.7 SFRSYM    DATA     BIT       CY
      000000DEH   SFRSYM    DATA     BYTE      ADCCFG
      000000B8H   SFRSYM    DATA     BYTE      IP
      0000008FH   SFRSYM    DATA     BYTE      INTCLKO
      000000EEH   SFRSYM    DATA     BYTE      IP3H
      000000B6H   SFRSYM    DATA     BYTE      IP2H
      000000BFH   SFRSYM    DATA     BYTE      P_SW4
      000000A8H   SFRSYM    DATA     BYTE      IE
      000000BBH   SFRSYM    DATA     BYTE      P_SW3
      000000BAH   SFRSYM    DATA     BYTE      P_SW2
      000000A2H   SFRSYM    DATA     BYTE      P_SW1
      000000CEH   SFRSYM    DATA     BYTE      SPCTL
      000000F8H   SFRSYM    DATA     BYTE      P7
      000000E8H   SFRSYM    DATA     BYTE      P6
      000000C8H   SFRSYM    DATA     BYTE      P5
      000000C0H   SFRSYM    DATA     BYTE      P4
      000000ABH   SFRSYM    DATA     BYTE      WKTCH
      000000B0H   SFRSYM    DATA     BYTE      P3
      000000A0H   SFRSYM    DATA     BYTE      P2
      00000090H   SFRSYM    DATA     BYTE      P1
      00000080H   SFRSYM    DATA     BYTE      P0

      00FF536EH   BLOCK     CODE     ---       LVL=0
      R6          REGSYM    ---      BYTE      num
      00FF5370H   BLOCK     CODE     NEAR LAB  LVL=1
      R7          REGSYM    ---      BYTE      count
      ---         BLOCKEND  ---      ---       LVL=1
      00FF536EH   LINE      CODE     ---       #57
      00FF5370H   LINE      CODE     ---       #58
      00FF5370H   LINE      CODE     ---       #59
      00FF5370H   LINE      CODE     ---       #60
      00FF5372H   LINE      CODE     ---       #61
      00FF5374H   LINE      CODE     ---       #63
      00FF5376H   LINE      CODE     ---       #64
      00FF537AH   LINE      CODE     ---       #65
      00FF537FH   LINE      CODE     ---       #66
      00FF5384H   LINE      CODE     ---       #67
      00FF538BH   LINE      CODE     ---       #68
      ---         BLOCKEND  ---      ---       LVL=0

      00FF538CH   BLOCK     CODE     ---       LVL=0
      R5          REGSYM    ---      BYTE      count
      WR6         REGSYM    ---      WORD      Num
      00FF538CH   LINE      CODE     ---       #71
      00FF538CH   LINE      CODE     ---       #72
      00FF538CH   LINE      CODE     ---       #73
      00FF538CH   LINE      CODE     ---       #74
      00FF538EH   LINE      CODE     ---       #75
      00FF5391H   LINE      CODE     ---       #77
L251 LINKER/LOCATER V4.66.93.0                                                        03/11/2025  16:09:00  PAGE 37


      00FF5393H   LINE      CODE     ---       #78
      00FF5398H   LINE      CODE     ---       #79
      00FF539DH   LINE      CODE     ---       #80
      00FF53A0H   LINE      CODE     ---       #82
      00FF53A3H   LINE      CODE     ---       #83
      00FF53A7H   LINE      CODE     ---       #86
      00FF53A7H   LINE      CODE     ---       #87
      ---         BLOCKEND  ---      ---       LVL=0

      00FF540DH   BLOCK     CODE     ---       LVL=0
      R7          REGSYM    ---      BYTE      CMD
      WR6         REGSYM    ---      WORD      l
      00FF540DH   LINE      CODE     ---       #91
      00FF540DH   LINE      CODE     ---       #92
      00FF540DH   LINE      CODE     ---       #94
      00FF540FH   LINE      CODE     ---       #95
      00FF5412H   LINE      CODE     ---       #96
      00FF5418H   LINE      CODE     ---       #97
      00FF541EH   LINE      CODE     ---       #98
      00FF5421H   LINE      CODE     ---       #99
      00FF5423H   LINE      CODE     ---       #100
      00FF5423H   LINE      CODE     ---       #101
      ---         BLOCKEND  ---      ---       LVL=0

      00FF4C1FH   BLOCK     CODE     ---       LVL=0
      R15         REGSYM    ---      BYTE      xy
      00FF4C25H   BLOCK     CODE     NEAR LAB  LVL=1
      WR12        REGSYM    ---      WORD      i
      WR4         REGSYM    ---      WORD      j
      0000001AH   SYMBOL    EDATA    ---       buf
      00000038H   SYMBOL    EDATA    WORD      sum
      0000003AH   SYMBOL    EDATA    WORD      temp
      ---         BLOCKEND  ---      ---       LVL=1
      00FF4C1FH   LINE      CODE     ---       #108
      00FF4C25H   LINE      CODE     ---       #109
      00FF4C25H   LINE      CODE     ---       #112
      00FF4C2BH   LINE      CODE     ---       #114
      00FF4C2BH   LINE      CODE     ---       #116
      00FF4C38H   LINE      CODE     ---       #117
      00FF4C40H   LINE      CODE     ---       #118
      00FF4C44H   LINE      CODE     ---       #120
      00FF4C4CH   LINE      CODE     ---       #122
      00FF4C60H   LINE      CODE     ---       #124
      00FF4C64H   LINE      CODE     ---       #125
      00FF4C68H   LINE      CODE     ---       #126
      00FF4C70H   LINE      CODE     ---       #127
      00FF4C78H   LINE      CODE     ---       #129
      00FF4C80H   LINE      CODE     ---       #130
      00FF4C84H   LINE      CODE     ---       #131
      00FF4CA0H   LINE      CODE     ---       #132
      00FF4CAEH   LINE      CODE     ---       #133
      00FF4CAEH   LINE      CODE     ---       #134
      ---         BLOCKEND  ---      ---       LVL=0

      00FF519DH   BLOCK     CODE     ---       LVL=0
      00000014H   SYMBOL    EDATA    ---       x
      REG=3       REGSYM    ---      ---       y
      00FF51A5H   BLOCK     CODE     NEAR LAB  LVL=1
      00000018H   SYMBOL    EDATA    WORD      xtemp
      WR6         REGSYM    ---      WORD      ytemp
      ---         BLOCKEND  ---      ---       LVL=1
      00FF519DH   LINE      CODE     ---       #138
      00FF51A5H   LINE      CODE     ---       #139
      00FF51A5H   LINE      CODE     ---       #141
      00FF51AEH   LINE      CODE     ---       #142
L251 LINKER/LOCATER V4.66.93.0                                                        03/11/2025  16:09:00  PAGE 38


      00FF51B3H   LINE      CODE     ---       #143
      00FF51C6H   LINE      CODE     ---       #144
      00FF51CDH   LINE      CODE     ---       #145
      00FF51D0H   LINE      CODE     ---       #146
      00FF51D2H   LINE      CODE     ---       #147
      ---         BLOCKEND  ---      ---       LVL=0

      00FF4997H   BLOCK     CODE     ---       LVL=0
      00000008H   SYMBOL    EDATA    ---       x
      REG=3       REGSYM    ---      ---       y
      00FF499FH   BLOCK     CODE     NEAR LAB  LVL=1
      0000000CH   SYMBOL    EDATA    WORD      x1
      0000000EH   SYMBOL    EDATA    WORD      y1
      00000010H   SYMBOL    EDATA    WORD      x2
      00000012H   SYMBOL    EDATA    WORD      y2
      R11         REGSYM    ---      BYTE      flag
      ---         BLOCKEND  ---      ---       LVL=1
      00FF4997H   LINE      CODE     ---       #153
      00FF499FH   LINE      CODE     ---       #154
      00FF499FH   LINE      CODE     ---       #158
      00FF49AAH   LINE      CODE     ---       #159
      00FF49B0H   LINE      CODE     ---       #160
      00FF49BBH   LINE      CODE     ---       #161
      00FF49C0H   LINE      CODE     ---       #162
      00FF4A18H   LINE      CODE     ---       #165
      00FF4A29H   LINE      CODE     ---       #166
      00FF4A36H   LINE      CODE     ---       #167
      00FF4A3AH   LINE      CODE     ---       #168
      00FF4A3BH   LINE      CODE     ---       #169
      ---         BLOCKEND  ---      ---       LVL=0
      R15         REGSYM    ---      BYTE      re
      WR12        REGSYM    ---      WORD      x
      WR14        REGSYM    ---      WORD      y

      00FF523BH   BLOCK     CODE     ---       LVL=0
      WR12        REGSYM    ---      WORD      x
      WR14        REGSYM    ---      WORD      y
      WR2         REGSYM    ---      WORD      color
      00FF523BH   LINE      CODE     ---       #205
      00FF5241H   LINE      CODE     ---       #207
      00FF5245H   LINE      CODE     ---       #209
      00FF5248H   LINE      CODE     ---       #210
      00FF5251H   LINE      CODE     ---       #211
      00FF525AH   LINE      CODE     ---       #212
      00FF5265H   LINE      CODE     ---       #213
      ---         BLOCKEND  ---      ---       LVL=0

      00FF4AE2H   BLOCK     CODE     ---       LVL=0
      00FF4AE4H   BLOCK     CODE     NEAR LAB  LVL=1
      WR4         REGSYM    ---      WORD      temp
      R15         REGSYM    ---      BYTE      l
      ---         BLOCKEND  ---      ---       LVL=1
      00FF4AE2H   LINE      CODE     ---       #217
      00FF4AE4H   LINE      CODE     ---       #218
      00FF4AE4H   LINE      CODE     ---       #222
      00FF4AE6H   LINE      CODE     ---       #224
      00FF4AF6H   LINE      CODE     ---       #226
      00FF4AF9H   LINE      CODE     ---       #227
      00FF4B2BH   LINE      CODE     ---       #228
      00FF4B5DH   LINE      CODE     ---       #233
      00FF4B61H   LINE      CODE     ---       #234
      00FF4B65H   LINE      CODE     ---       #235
      00FF4B6FH   LINE      CODE     ---       #236
      00FF4B7DH   LINE      CODE     ---       #238
      00FF4B7DH   LINE      CODE     ---       #239
L251 LINKER/LOCATER V4.66.93.0                                                        03/11/2025  16:09:00  PAGE 39


      00FF4B7FH   LINE      CODE     ---       #240
      ---         BLOCKEND  ---      ---       LVL=0
      WR14        REGSYM    ---      WORD      chy2
      R13         REGSYM    ---      BYTE      cnt

      ---         MODULE    ---      ---       tm_layers
      00FF21B5H   PUBLIC    CODE     ---       tml_conv2d_dwconv2d
      00FF4800H   PUBLIC    CODE     ---       tm_dot_prod_3x3x1
      00FF5494H   PUBLIC    CODE     ---       tml_reshape
      00FF408FH   PUBLIC    CODE     ---       tm_dot_prod
      00FF3887H   PUBLIC    CODE     ---       tml_softmax
      00FF4DCEH   PUBLIC    CODE     ---       l_postprocess_sum
      00FF31E1H   PUBLIC    CODE     ---       tm_dot_prod_pack2
      00FF4A3EH   PUBLIC    CODE     ---       tml_gap
      00FF48CDH   PUBLIC    CODE     ---       tml_fc
      000000C9H   PUBLIC    EDATA    BYTE      ?tm_dot_prod?BYTE
      000000C9H   PUBLIC    EDATA    BYTE      ?tm_dot_prod_pack2?BYTE
      000000C9H   PUBLIC    EDATA    BYTE      ?tm_dot_prod_3x3x1?BYTE
      000000C9H   PUBLIC    EDATA    BYTE      ?l_postprocess_sum?BYTE
      00000041H   PUBLIC    EDATA    BYTE      ?tml_conv2d_dwconv2d?BYTE
      0000003DH   PUBLIC    EDATA    BYTE      ?tml_gap?BYTE
      00000041H   PUBLIC    EDATA    BYTE      ?tml_fc?BYTE
      00000041H   PUBLIC    EDATA    BYTE      ?tml_softmax?BYTE
      0000003DH   PUBLIC    EDATA    BYTE      ?tml_reshape?BYTE
      000110B0H   SYMBOL    XDATA    ---       k_oft
      00011114H   SYMBOL    XDATA    ---       sbuf
      00011498H   SYMBOL    XDATA    ---       sumscale

      00FF408FH   BLOCK     CODE     ---       LVL=0
      REG=6       REGSYM    ---      ---       sptr
      REG=7       REGSYM    ---      ---       kptr
      000000D1H   SYMBOL    EDATA    DWORD     siz
      000000D5H   SYMBOL    EDATA    ---       result
      00FF4095H   BLOCK     CODE     NEAR LAB  LVL=1
      DR20        REGSYM    ---      LONG      sum
      DR16        REGSYM    ---      DWORD     i
      DR12        REGSYM    ---      DWORD     cnt
      ---         BLOCKEND  ---      ---       LVL=1
      00FF408FH   LINE      CODE     ---       #14
      00FF4095H   LINE      CODE     ---       #15
      00FF4095H   LINE      CODE     ---       #16
      00FF4097H   LINE      CODE     ---       #17
      00FF4099H   LINE      CODE     ---       #18
      00FF40B3H   LINE      CODE     ---       #19
      00FF40B6H   LINE      CODE     ---       #20
      00FF40D7H   LINE      CODE     ---       #21
      00FF40F8H   LINE      CODE     ---       #22
      00FF4119H   LINE      CODE     ---       #23
      00FF413AH   LINE      CODE     ---       #24
      00FF415BH   LINE      CODE     ---       #25
      00FF417CH   LINE      CODE     ---       #26
      00FF419DH   LINE      CODE     ---       #27
      00FF41BEH   LINE      CODE     ---       #28
      00FF41CBH   LINE      CODE     ---       #29
      00FF41CDH   LINE      CODE     ---       #30
      00FF41ECH   LINE      CODE     ---       #31
      00FF41F6H   LINE      CODE     ---       #32
      00FF4201H   LINE      CODE     ---       #33
      00FF4201H   LINE      CODE     ---       #34
      ---         BLOCKEND  ---      ---       LVL=0

      00FF31E1H   BLOCK     CODE     ---       LVL=0
      REG=7       REGSYM    ---      ---       sptr
      REG=2       REGSYM    ---      ---       kptr
      000000D1H   SYMBOL    EDATA    DWORD     siz
L251 LINKER/LOCATER V4.66.93.0                                                        03/11/2025  16:09:00  PAGE 40


      000000D5H   SYMBOL    EDATA    ---       result
      00FF31E7H   BLOCK     CODE     NEAR LAB  LVL=1
      DR20        REGSYM    ---      LONG      sum0
      DR24        REGSYM    ---      LONG      sum1
      000000D9H   SYMBOL    EDATA    ---       kptr0
      REG=4       REGSYM    ---      ---       kptr1
      DR12        REGSYM    ---      DWORD     i
      000000DDH   SYMBOL    EDATA    DWORD     cnt
      ---         BLOCKEND  ---      ---       LVL=1
      00FF31E1H   LINE      CODE     ---       #36
      00FF31E7H   LINE      CODE     ---       #37
      00FF31E7H   LINE      CODE     ---       #38
      00FF31EBH   LINE      CODE     ---       #39
      00FF31EBH   LINE      CODE     ---       #40
      00FF31EFH   LINE      CODE     ---       #41
      00FF31F7H   LINE      CODE     ---       #43
      00FF31F9H   LINE      CODE     ---       #44
      00FF3211H   LINE      CODE     ---       #45
      00FF3214H   LINE      CODE     ---       #46
      00FF324BH   LINE      CODE     ---       #47
      00FF3282H   LINE      CODE     ---       #48
      00FF32B9H   LINE      CODE     ---       #49
      00FF32F0H   LINE      CODE     ---       #50
      00FF3327H   LINE      CODE     ---       #51
      00FF335EH   LINE      CODE     ---       #52
      00FF3395H   LINE      CODE     ---       #53
      00FF33CCH   LINE      CODE     ---       #54
      00FF33DDH   LINE      CODE     ---       #55
      00FF33DFH   LINE      CODE     ---       #56
      00FF33FEH   LINE      CODE     ---       #57
      00FF3414H   LINE      CODE     ---       #58
      00FF341EH   LINE      CODE     ---       #60
      00FF3429H   LINE      CODE     ---       #61
      00FF3435H   LINE      CODE     ---       #62
      00FF3435H   LINE      CODE     ---       #63
      ---         BLOCKEND  ---      ---       LVL=0
      REG=5       REGSYM    ---      ---       sptr
      REG=6       REGSYM    ---      ---       kptr

      00FF4800H   BLOCK     CODE     ---       LVL=0
      REG=5       REGSYM    ---      ---       sptr
      REG=6       REGSYM    ---      ---       kptr
      000000D1H   SYMBOL    EDATA    ---       result
      00FF4800H   LINE      CODE     ---       #73
      00FF4804H   LINE      CODE     ---       #75
      00FF48CCH   LINE      CODE     ---       #78
      00FF48CCH   LINE      CODE     ---       #79
      ---         BLOCKEND  ---      ---       LVL=0

      00FF4DCEH   BLOCK     CODE     ---       LVL=0
      DR28        REGSYM    ---      LONG      sum
      DR8         REGSYM    ---      LONG      b
      000000D1H   SYMBOL    EDATA    INT       act
      000000D3H   SYMBOL    EDATA    ---       outp
      000000D7H   SYMBOL    EDATA    FLOAT     scale
      000000DBH   SYMBOL    EDATA    FLOAT     out_s
      000000DFH   SYMBOL    EDATA    LONG      out_zp
      00FF4DD0H   BLOCK     CODE     NEAR LAB  LVL=1
      DR28        REGSYM    ---      FLOAT     sumf
      ---         BLOCKEND  ---      ---       LVL=1
      00FF4DCEH   LINE      CODE     ---       #53
      00FF4DD0H   LINE      CODE     ---       #61
      00FF4DD0H   LINE      CODE     ---       #67
      00FF4DD2H   LINE      CODE     ---       #69
      00FF4DE2H   LINE      CODE     ---       #74
L251 LINKER/LOCATER V4.66.93.0                                                        03/11/2025  16:09:00  PAGE 41


      00FF4DF0H   LINE      CODE     ---       #75
      00FF4DF0H   LINE      CODE     ---       #76
      00FF4DFDH   LINE      CODE     ---       #77
      00FF4DFFH   LINE      CODE     ---       #78
      00FF4DFFH   LINE      CODE     ---       #79
      00FF4E0CH   LINE      CODE     ---       #81
      00FF4E23H   LINE      CODE     ---       #85
      00FF4E23H   LINE      CODE     ---       #86
      00FF4E23H   LINE      CODE     ---       #87
      00FF4E23H   LINE      CODE     ---       #88
      00FF4E23H   LINE      CODE     ---       #90
      00FF4E46H   LINE      CODE     ---       #97
      00FF4E46H   LINE      CODE     ---       #98
      ---         BLOCKEND  ---      ---       LVL=0

      00FF21B5H   BLOCK     CODE     ---       LVL=0
      REG=3       REGSYM    ---      ---       in
      00000045H   SYMBOL    EDATA    ---       out
      00000049H   SYMBOL    EDATA    ---       w
      0000004DH   SYMBOL    EDATA    ---       b
      00000051H   SYMBOL    EDATA    INT       kw
      00000053H   SYMBOL    EDATA    INT       kh
      00000055H   SYMBOL    EDATA    INT       sx
      00000057H   SYMBOL    EDATA    INT       sy
      00000059H   SYMBOL    EDATA    INT       dx
      0000005BH   SYMBOL    EDATA    INT       dy
      0000005DH   SYMBOL    EDATA    INT       act
      0000005FH   SYMBOL    EDATA    INT       pad_top
      00000061H   SYMBOL    EDATA    INT       pad_bottom
      00000063H   SYMBOL    EDATA    INT       pad_left
      00000065H   SYMBOL    EDATA    INT       pad_right
      00000067H   SYMBOL    EDATA    INT       dmul
      00000069H   SYMBOL    EDATA    ---       ws
      0000006DH   SYMBOL    EDATA    FLOAT     in_s
      00000071H   SYMBOL    EDATA    LONG      in_zp
      00000075H   SYMBOL    EDATA    FLOAT     out_s
      00000079H   SYMBOL    EDATA    LONG      out_zp
      00FF21BDH   BLOCK     CODE     NEAR LAB  LVL=1
      0000007DH   SYMBOL    EDATA    INT       pad_flag
      0000007FH   SYMBOL    EDATA    INT       maxk
      00000081H   SYMBOL    EDATA    INT       chi
      00000083H   SYMBOL    EDATA    INT       cho
      00000085H   SYMBOL    EDATA    LONG      sum
      00000089H   SYMBOL    EDATA    ---       sptr
      0000008DH   SYMBOL    EDATA    ---       outp
      00000091H   SYMBOL    EDATA    INT       x
      00000093H   SYMBOL    EDATA    INT       y
      00000095H   SYMBOL    EDATA    INT       c
      00000097H   SYMBOL    EDATA    INT       cc
      WR0         REGSYM    ---      INT       k
      WR6         REGSYM    ---      INT       oft
      WR4         REGSYM    ---      INT       idx
      00000099H   SYMBOL    EDATA    INT       slow_flag
      0000009BH   SYMBOL    EDATA    INT       _ky
      0000009DH   SYMBOL    EDATA    INT       _kx
      0000009FH   SYMBOL    EDATA    ---       sums
      000000A7H   SYMBOL    EDATA    FLOAT     outscale
      00FF22E8H   BLOCK     CODE     NEAR LAB  LVL=2
      000000B3H   SYMBOL    EDATA    ---       sptr
      000000B7H   SYMBOL    EDATA    ---       kptr
      ---         BLOCKEND  ---      ---       LVL=2
      00FF25A2H   BLOCK     CODE     NEAR LAB  LVL=2
      000000ABH   SYMBOL    EDATA    INT       src_y0
      00FF25B9H   BLOCK     CODE     NEAR LAB  LVL=3
      000000ADH   SYMBOL    EDATA    INT       src_x0
L251 LINKER/LOCATER V4.66.93.0                                                        03/11/2025  16:09:00  PAGE 42


      000000AFH   SYMBOL    EDATA    LONG      sum
      00FF262EH   BLOCK     CODE     NEAR LAB  LVL=4
      000000B3H   SYMBOL    EDATA    ---       sptr_base
      000000B7H   SYMBOL    EDATA    ---       sptr
      000000BBH   SYMBOL    EDATA    DWORD     sidx
      ---         BLOCKEND  ---      ---       LVL=4
      00FF2700H   BLOCK     CODE     NEAR LAB  LVL=4
      000000B3H   SYMBOL    EDATA    INT       _ky0
      000000B5H   SYMBOL    EDATA    INT       _kx0
      000000B7H   SYMBOL    EDATA    INT       _ky1
      000000B9H   SYMBOL    EDATA    INT       _kx1
      000000BBH   SYMBOL    EDATA    DWORD     sidx
      000000BFH   SYMBOL    EDATA    DWORD     s_step
      000000C3H   SYMBOL    EDATA    ---       sptr_base
      000000C7H   SYMBOL    EDATA    ---       sptr
      00FF27EFH   BLOCK     CODE     NEAR LAB  LVL=5
      000000CFH   SYMBOL    EDATA    INT       k
      ---         BLOCKEND  ---      ---       LVL=5
      ---         BLOCKEND  ---      ---       LVL=4
      00FF28E8H   BLOCK     CODE     NEAR LAB  LVL=4
      000000CBH   SYMBOL    EDATA    ---       kptr
      ---         BLOCKEND  ---      ---       LVL=4
      00FF299DH   BLOCK     CODE     NEAR LAB  LVL=4
      000000CBH   SYMBOL    EDATA    ---       kptr
      ---         BLOCKEND  ---      ---       LVL=4
      ---         BLOCKEND  ---      ---       LVL=3
      ---         BLOCKEND  ---      ---       LVL=2
      ---         BLOCKEND  ---      ---       LVL=1
      00FF21B5H   LINE      CODE     ---       #103
      00FF21BDH   LINE      CODE     ---       #108
      00FF21BDH   LINE      CODE     ---       #125
      00FF21D1H   LINE      CODE     ---       #126
      00FF21D8H   LINE      CODE     ---       #128
      00FF21E2H   LINE      CODE     ---       #129
      00FF21E4H   LINE      CODE     ---       #130
      00FF21E4H   LINE      CODE     ---       #132
      00FF21F2H   LINE      CODE     ---       #133
      00FF21F8H   LINE      CODE     ---       #134
      00FF21FFH   LINE      CODE     ---       #135
      00FF2219H   LINE      CODE     ---       #136
      00FF2220H   LINE      CODE     ---       #137
      00FF2220H   LINE      CODE     ---       #139
      00FF2228H   LINE      CODE     ---       #140
      00FF2234H   LINE      CODE     ---       #141
      00FF223AH   LINE      CODE     ---       #142
      00FF224AH   LINE      CODE     ---       #143
      00FF2276H   LINE      CODE     ---       #151
      00FF227EH   LINE      CODE     ---       #152
      00FF22CFH   LINE      CODE     ---       #159
      00FF22DCH   LINE      CODE     ---       #160
      00FF22E3H   LINE      CODE     ---       #161
      00FF22E8H   LINE      CODE     ---       #162
      00FF231AH   LINE      CODE     ---       #163
      00FF2322H   LINE      CODE     ---       #164
      00FF2328H   LINE      CODE     ---       #165
      00FF232BH   LINE      CODE     ---       #166
      00FF234AH   LINE      CODE     ---       #167
      00FF239DH   LINE      CODE     ---       #169
      00FF23A7H   LINE      CODE     ---       #170
      00FF23B1H   LINE      CODE     ---       #171
      00FF2404H   LINE      CODE     ---       #173
      00FF240EH   LINE      CODE     ---       #174
      00FF2418H   LINE      CODE     ---       #175
      00FF2428H   LINE      CODE     ---       #176
      00FF243BH   LINE      CODE     ---       #177
L251 LINKER/LOCATER V4.66.93.0                                                        03/11/2025  16:09:00  PAGE 43


      00FF243EH   LINE      CODE     ---       #178
      00FF245DH   LINE      CODE     ---       #179
      00FF24B0H   LINE      CODE     ---       #180
      00FF24BAH   LINE      CODE     ---       #181
      00FF24C6H   LINE      CODE     ---       #182
      00FF24E1H   LINE      CODE     ---       #183
      00FF24FCH   LINE      CODE     ---       #184
      00FF2517H   LINE      CODE     ---       #186
      00FF251CH   LINE      CODE     ---       #187
      00FF251CH   LINE      CODE     ---       #189
      00FF251CH   LINE      CODE     ---       #191
      00FF251CH   LINE      CODE     ---       #193
      00FF251CH   LINE      CODE     ---       #194
      00FF251EH   LINE      CODE     ---       #195
      00FF2520H   LINE      CODE     ---       #196
      00FF2524H   LINE      CODE     ---       #197
      00FF2528H   LINE      CODE     ---       #198
      00FF2543H   LINE      CODE     ---       #199
      00FF2545H   LINE      CODE     ---       #200
      00FF254BH   LINE      CODE     ---       #201
      00FF255FH   LINE      CODE     ---       #202
      00FF256FH   LINE      CODE     ---       #203
      00FF2583H   LINE      CODE     ---       #205
      00FF2599H   LINE      CODE     ---       #207
      00FF259FH   LINE      CODE     ---       #208
      00FF25A2H   LINE      CODE     ---       #209
      00FF25B4H   LINE      CODE     ---       #210
      00FF25B9H   LINE      CODE     ---       #211
      00FF25CBH   LINE      CODE     ---       #213
      00FF2629H   LINE      CODE     ---       #216
      00FF262EH   LINE      CODE     ---       #218
      00FF264CH   LINE      CODE     ---       #220
      00FF2650H   LINE      CODE     ---       #221
      00FF2656H   LINE      CODE     ---       #222
      00FF265FH   LINE      CODE     ---       #223
      00FF2663H   LINE      CODE     ---       #224
      00FF2699H   LINE      CODE     ---       #225
      00FF26A3H   LINE      CODE     ---       #226
      00FF26B3H   LINE      CODE     ---       #227
      00FF26D8H   LINE      CODE     ---       #228
      00FF26FDH   LINE      CODE     ---       #229
      00FF2700H   LINE      CODE     ---       #230
      00FF2714H   LINE      CODE     ---       #231
      00FF2728H   LINE      CODE     ---       #232
      00FF2744H   LINE      CODE     ---       #233
      00FF2760H   LINE      CODE     ---       #234
      00FF2766H   LINE      CODE     ---       #235
      00FF278FH   LINE      CODE     ---       #236
      00FF27ADH   LINE      CODE     ---       #237
      00FF27B1H   LINE      CODE     ---       #238
      00FF27DEH   LINE      CODE     ---       #239
      00FF27E3H   LINE      CODE     ---       #240
      00FF27E9H   LINE      CODE     ---       #241
      00FF27EFH   LINE      CODE     ---       #242
      00FF2801H   LINE      CODE     ---       #243
      00FF2835H   LINE      CODE     ---       #244
      00FF2849H   LINE      CODE     ---       #245
      00FF285DH   LINE      CODE     ---       #246
      00FF286FH   LINE      CODE     ---       #247
      00FF2894H   LINE      CODE     ---       #248
      00FF28B9H   LINE      CODE     ---       #249
      00FF28B9H   LINE      CODE     ---       #250
      00FF28C5H   LINE      CODE     ---       #251
      00FF28E3H   LINE      CODE     ---       #252
      00FF28E8H   LINE      CODE     ---       #254
L251 LINKER/LOCATER V4.66.93.0                                                        03/11/2025  16:09:00  PAGE 44


      00FF2902H   LINE      CODE     ---       #255
      00FF2911H   LINE      CODE     ---       #257
      00FF2964H   LINE      CODE     ---       #258
      00FF296EH   LINE      CODE     ---       #259
      00FF297AH   LINE      CODE     ---       #260
      00FF2995H   LINE      CODE     ---       #261
      00FF2998H   LINE      CODE     ---       #262
      00FF299DH   LINE      CODE     ---       #264
      00FF29B9H   LINE      CODE     ---       #265
      00FF29D9H   LINE      CODE     ---       #267
      00FF2A2CH   LINE      CODE     ---       #268
      00FF2A36H   LINE      CODE     ---       #269
      00FF2A3EH   LINE      CODE     ---       #270
      00FF2A4AH   LINE      CODE     ---       #271
      00FF2A65H   LINE      CODE     ---       #272
      00FF2A65H   LINE      CODE     ---       #273
      00FF2A65H   LINE      CODE     ---       #275
      00FF2A65H   LINE      CODE     ---       #277
      00FF2A65H   LINE      CODE     ---       #278
      00FF2A80H   LINE      CODE     ---       #279
      00FF2A9BH   LINE      CODE     ---       #280
      00FF2A9BH   LINE      CODE     ---       #282
      00FF2A9BH   LINE      CODE     ---       #284
      00FF2A9BH   LINE      CODE     ---       #285
      00FF2A9DH   LINE      CODE     ---       #286
      ---         BLOCKEND  ---      ---       LVL=0

      00FF4A3EH   BLOCK     CODE     ---       LVL=0
      REG=7       REGSYM    ---      ---       in
      REG=6       REGSYM    ---      ---       out
      00000045H   SYMBOL    EDATA    FLOAT     in_s
      00000049H   SYMBOL    EDATA    LONG      in_zp
      0000004DH   SYMBOL    EDATA    FLOAT     out_s
      00000051H   SYMBOL    EDATA    LONG      out_zp
      00FF4A42H   BLOCK     CODE     NEAR LAB  LVL=1
      REG=4       REGSYM    ---      ---       dat
      WR22        REGSYM    ---      INT       c
      WR20        REGSYM    ---      INT       y
      WR2         REGSYM    ---      INT       x
      00FF4A47H   BLOCK     CODE     NEAR LAB  LVL=2
      00000055H   SYMBOL    EDATA    LONG      sum
      ---         BLOCKEND  ---      ---       LVL=2
      ---         BLOCKEND  ---      ---       LVL=1
      00FF4A3EH   LINE      CODE     ---       #289
      00FF4A42H   LINE      CODE     ---       #290
      00FF4A42H   LINE      CODE     ---       #293
      00FF4A47H   LINE      CODE     ---       #294
      00FF4A4DH   LINE      CODE     ---       #295
      00FF4A57H   LINE      CODE     ---       #296
      00FF4A5BH   LINE      CODE     ---       #297
      00FF4A5FH   LINE      CODE     ---       #298
      00FF4A70H   LINE      CODE     ---       #299
      00FF4A76H   LINE      CODE     ---       #300
      00FF4A80H   LINE      CODE     ---       #301
      00FF4A8AH   LINE      CODE     ---       #303
      00FF4AD2H   LINE      CODE     ---       #309
      00FF4ADFH   LINE      CODE     ---       #310
      00FF4AE1H   LINE      CODE     ---       #311
      ---         BLOCKEND  ---      ---       LVL=0

      00FF48CDH   BLOCK     CODE     ---       LVL=0
      REG=3       REGSYM    ---      ---       in
      00000045H   SYMBOL    EDATA    ---       out
      00000049H   SYMBOL    EDATA    ---       w
      0000004DH   SYMBOL    EDATA    ---       b
L251 LINKER/LOCATER V4.66.93.0                                                        03/11/2025  16:09:00  PAGE 45


      00000051H   SYMBOL    EDATA    ---       ws
      00000055H   SYMBOL    EDATA    FLOAT     in_s
      0000005DH   SYMBOL    EDATA    FLOAT     out_s
      00000061H   SYMBOL    EDATA    LONG      out_zp
      00FF48D5H   BLOCK     CODE     NEAR LAB  LVL=1
      00000065H   SYMBOL    EDATA    ---       dat
      00000069H   SYMBOL    EDATA    INT       c
      00FF48E6H   BLOCK     CODE     NEAR LAB  LVL=2
      0000006BH   SYMBOL    EDATA    LONG      sum
      ---         BLOCKEND  ---      ---       LVL=2
      ---         BLOCKEND  ---      ---       LVL=1
      00FF48CDH   LINE      CODE     ---       #314
      00FF48D5H   LINE      CODE     ---       #316
      00FF48D5H   LINE      CODE     ---       #317
      00FF48E1H   LINE      CODE     ---       #319
      00FF48E6H   LINE      CODE     ---       #320
      00FF48ECH   LINE      CODE     ---       #321
      00FF4911H   LINE      CODE     ---       #322
      00FF4930H   LINE      CODE     ---       #324
      00FF4977H   LINE      CODE     ---       #328
      00FF4992H   LINE      CODE     ---       #329
      00FF4994H   LINE      CODE     ---       #330
      ---         BLOCKEND  ---      ---       LVL=0

      00FF3887H   BLOCK     CODE     ---       LVL=0
      REG=3       REGSYM    ---      ---       in
      00000045H   SYMBOL    EDATA    ---       out
      00000049H   SYMBOL    EDATA    FLOAT     in_s
      0000004DH   SYMBOL    EDATA    LONG      in_zp
      00000051H   SYMBOL    EDATA    FLOAT     out_s
      00000055H   SYMBOL    EDATA    LONG      out_zp
      00FF388FH   BLOCK     CODE     NEAR LAB  LVL=1
      00000059H   SYMBOL    EDATA    INT       c
      REG=7       REGSYM    ---      ---       din
      0000005BH   SYMBOL    EDATA    ---       dout
      0000005FH   SYMBOL    EDATA    FLOAT     dmax
      00000063H   SYMBOL    EDATA    FLOAT     sum
      ---         BLOCKEND  ---      ---       LVL=1
      00FF3887H   LINE      CODE     ---       #333
      00FF388FH   LINE      CODE     ---       #335
      00FF388FH   LINE      CODE     ---       #338
      00FF3897H   LINE      CODE     ---       #339
      00FF38A7H   LINE      CODE     ---       #340
      00FF38B3H   LINE      CODE     ---       #341
      00FF38B9H   LINE      CODE     ---       #342
      00FF38BBH   LINE      CODE     ---       #344
      00FF38F1H   LINE      CODE     ---       #348
      00FF390FH   LINE      CODE     ---       #349
      00FF391AH   LINE      CODE     ---       #350
      00FF392EH   LINE      CODE     ---       #352
      00FF3933H   LINE      CODE     ---       #353
      00FF3956H   LINE      CODE     ---       #354
      00FF3985H   LINE      CODE     ---       #355
      00FF39A7H   LINE      CODE     ---       #356
      00FF39BBH   LINE      CODE     ---       #357
      00FF39D2H   LINE      CODE     ---       #358
      00FF39D6H   LINE      CODE     ---       #360
      00FF3A1FH   LINE      CODE     ---       #364
      00FF3A33H   LINE      CODE     ---       #365
      00FF3A35H   LINE      CODE     ---       #366
      ---         BLOCKEND  ---      ---       LVL=0

      00FF5494H   BLOCK     CODE     ---       LVL=0
      00FF5494H   LINE      CODE     ---       #369
      00FF5494H   LINE      CODE     ---       #371
L251 LINKER/LOCATER V4.66.93.0                                                        03/11/2025  16:09:00  PAGE 46


      00FF5496H   LINE      CODE     ---       #372
      ---         BLOCKEND  ---      ---       LVL=0

      ---         MODULE    ---      ---       tm_model
      00FF4727H   PUBLIC    CODE     ---       tm_preprocess
      00FF2AA0H   PUBLIC    CODE     ---       tm_run
      00FF4633H   PUBLIC    CODE     ---       tm_load
      00000000H   PUBLIC    EDATA    ---       ?tm_load?BYTE
      00000013H   PUBLIC    EDATA    ---       ?tm_preprocess?BYTE
      00000011H   PUBLIC    EDATA    ---       ?tm_run?BYTE

      00FF4633H   BLOCK     CODE     ---       LVL=0
      REG=3       REGSYM    ---      ---       mdl
      REG=1       REGSYM    ---      ---       bin
      00000008H   SYMBOL    EDATA    ---       buf
      0000000CH   SYMBOL    EDATA    ---       cb
      0000000EH   SYMBOL    EDATA    ---       in
      00FF4637H   BLOCK     CODE     NEAR LAB  LVL=1
      REG=1       REGSYM    ---      ---       mdl_bin
      ---         BLOCKEND  ---      ---       LVL=1
      00FF4633H   LINE      CODE     ---       #19
      00FF4637H   LINE      CODE     ---       #20
      00FF4637H   LINE      CODE     ---       #22
      00FF4637H   LINE      CODE     ---       #24
      00FF4637H   LINE      CODE     ---       #27
      00FF463DH   LINE      CODE     ---       #28
      00FF4644H   LINE      CODE     ---       #29
      00FF464BH   LINE      CODE     ---       #30
      00FF465BH   LINE      CODE     ---       #31
      00FF4663H   LINE      CODE     ---       #32
      00FF4679H   LINE      CODE     ---       #33
      00FF4685H   LINE      CODE     ---       #34
      00FF4687H   LINE      CODE     ---       #35
      00FF468BH   LINE      CODE     ---       #36
      00FF468DH   LINE      CODE     ---       #37
      00FF4699H   LINE      CODE     ---       #38
      00FF469FH   LINE      CODE     ---       #39
      00FF469FH   LINE      CODE     ---       #40
      00FF46B4H   LINE      CODE     ---       #41
      00FF46BFH   LINE      CODE     ---       #42
      00FF46CBH   LINE      CODE     ---       #43
      00FF46D1H   LINE      CODE     ---       #44
      00FF46D1H   LINE      CODE     ---       #45
      00FF46DBH   LINE      CODE     ---       #46
      00FF46E1H   LINE      CODE     ---       #47
      00FF46F4H   LINE      CODE     ---       #48
      00FF470EH   LINE      CODE     ---       #49
      00FF4722H   LINE      CODE     ---       #50
      00FF4724H   LINE      CODE     ---       #51
      ---         BLOCKEND  ---      ---       LVL=0
      REG=3       REGSYM    ---      ---       mdl

      00FF4727H   BLOCK     CODE     ---       LVL=0
      REG=7       REGSYM    ---      ---       mdl
      WR10        REGSYM    ---      INT       pp_type
      00000019H   SYMBOL    EDATA    ---       in
      0000001DH   SYMBOL    EDATA    ---       out
      00FF472BH   BLOCK     CODE     NEAR LAB  LVL=1
      WR22        REGSYM    ---      INT       i
      REG=1       REGSYM    ---      ---       l0h
      DR24        REGSYM    ---      FLOAT     in_s
      DR16        REGSYM    ---      LONG      in_zp
      WR20        REGSYM    ---      INT       in_size
      ---         BLOCKEND  ---      ---       LVL=1
      00FF4727H   LINE      CODE     ---       #63
L251 LINKER/LOCATER V4.66.93.0                                                        03/11/2025  16:09:00  PAGE 47


      00FF472BH   LINE      CODE     ---       #64
      00FF472BH   LINE      CODE     ---       #66
      00FF4736H   LINE      CODE     ---       #67
      00FF473EH   LINE      CODE     ---       #68
      00FF4746H   LINE      CODE     ---       #69
      00FF475CH   LINE      CODE     ---       #70
      00FF4767H   LINE      CODE     ---       #72
      00FF4767H   LINE      CODE     ---       #73
      00FF476BH   LINE      CODE     ---       #74
      00FF47B3H   LINE      CODE     ---       #75
      00FF47B5H   LINE      CODE     ---       #76
      00FF47B5H   LINE      CODE     ---       #77
      00FF47B9H   LINE      CODE     ---       #78
      00FF47E1H   LINE      CODE     ---       #80
      00FF47E7H   LINE      CODE     ---       #81
      00FF47E9H   LINE      CODE     ---       #92
      00FF47E9H   LINE      CODE     ---       #93
      00FF47FDH   LINE      CODE     ---       #94
      00FF47FDH   LINE      CODE     ---       #95
      00FF47FDH   LINE      CODE     ---       #96
      00FF47FFH   LINE      CODE     ---       #97
      ---         BLOCKEND  ---      ---       LVL=0

      00FF2AA0H   BLOCK     CODE     ---       LVL=0
      REG=3       REGSYM    ---      ---       mdl
      REG=2       REGSYM    ---      ---       in
      00000019H   SYMBOL    EDATA    ---       out
      00FF2AA6H   BLOCK     CODE     NEAR LAB  LVL=1
      0000001DH   SYMBOL    EDATA    INT       i
      0000001FH   SYMBOL    EDATA    ---       _in
      0000002BH   SYMBOL    EDATA    ---       _out
      00000037H   SYMBOL    EDATA    INT       res
      00000039H   SYMBOL    EDATA    INT       out_idx
      00FF2ADDH   BLOCK     CODE     NEAR LAB  LVL=2
      0000003BH   SYMBOL    EDATA    ---       h
      00FF2B81H   BLOCK     CODE     NEAR LAB  LVL=3
      0000003FH   SYMBOL    EDATA    ---       l
      ---         BLOCKEND  ---      ---       LVL=3
      00FF2C51H   BLOCK     CODE     NEAR LAB  LVL=3
      0000003FH   SYMBOL    EDATA    ---       l
      ---         BLOCKEND  ---      ---       LVL=3
      00FF2CABH   BLOCK     CODE     NEAR LAB  LVL=3
      0000003FH   SYMBOL    EDATA    ---       l
      ---         BLOCKEND  ---      ---       LVL=3
      00FF2D25H   BLOCK     CODE     NEAR LAB  LVL=3
      0000003FH   SYMBOL    EDATA    ---       l
      ---         BLOCKEND  ---      ---       LVL=3
      00FF2D7EH   BLOCK     CODE     NEAR LAB  LVL=3
      0000003FH   SYMBOL    EDATA    ---       l
      ---         BLOCKEND  ---      ---       LVL=3
      00FF2E4EH   BLOCK     CODE     NEAR LAB  LVL=3
      0000003FH   SYMBOL    EDATA    INT       out_size
      00000041H   SYMBOL    EDATA    ---       outf
      ---         BLOCKEND  ---      ---       LVL=3
      ---         BLOCKEND  ---      ---       LVL=2
      ---         BLOCKEND  ---      ---       LVL=1
      00FF2AA0H   LINE      CODE     ---       #101
      00FF2AA6H   LINE      CODE     ---       #104
      00FF2AACH   LINE      CODE     ---       #105
      00FF2AB0H   LINE      CODE     ---       #106
      00FF2AC1H   LINE      CODE     ---       #107
      00FF2AD4H   LINE      CODE     ---       #108
      00FF2ADDH   LINE      CODE     ---       #109
      00FF2AE9H   LINE      CODE     ---       #110
      00FF2AF3H   LINE      CODE     ---       #111
L251 LINKER/LOCATER V4.66.93.0                                                        03/11/2025  16:09:00  PAGE 48


      00FF2B0BH   LINE      CODE     ---       #112
      00FF2B22H   LINE      CODE     ---       #113
      00FF2B22H   LINE      CODE     ---       #114
      00FF2B3AH   LINE      CODE     ---       #115
      00FF2B51H   LINE      CODE     ---       #116
      00FF2B81H   LINE      CODE     ---       #117
      00FF2B81H   LINE      CODE     ---       #118
      00FF2B81H   LINE      CODE     ---       #119
      00FF2B8DH   LINE      CODE     ---       #124
      00FF2C4EH   LINE      CODE     ---       #127
      00FF2C51H   LINE      CODE     ---       #129
      00FF2C51H   LINE      CODE     ---       #130
      00FF2C5DH   LINE      CODE     ---       #131
      00FF2CA8H   LINE      CODE     ---       #132
      00FF2CABH   LINE      CODE     ---       #134
      00FF2CABH   LINE      CODE     ---       #135
      00FF2CB7H   LINE      CODE     ---       #136
      00FF2D22H   LINE      CODE     ---       #140
      00FF2D25H   LINE      CODE     ---       #142
      00FF2D25H   LINE      CODE     ---       #143
      00FF2D31H   LINE      CODE     ---       #144
      00FF2D7CH   LINE      CODE     ---       #145
      00FF2D7EH   LINE      CODE     ---       #147
      00FF2D7EH   LINE      CODE     ---       #148
      00FF2D8AH   LINE      CODE     ---       #149
      00FF2DD5H   LINE      CODE     ---       #150
      00FF2DD7H   LINE      CODE     ---       #152
      00FF2DD7H   LINE      CODE     ---       #153
      00FF2DDFH   LINE      CODE     ---       #154
      00FF2DDFH   LINE      CODE     ---       #155
      00FF2DDFH   LINE      CODE     ---       #156
      00FF2DE3H   LINE      CODE     ---       #157
      00FF2DE6H   LINE      CODE     ---       #158
      00FF2DF4H   LINE      CODE     ---       #159
      00FF2DFCH   LINE      CODE     ---       #160
      00FF2E0BH   LINE      CODE     ---       #162
      00FF2E2AH   LINE      CODE     ---       #163
      00FF2E37H   LINE      CODE     ---       #165
      00FF2E4EH   LINE      CODE     ---       #166
      00FF2E4EH   LINE      CODE     ---       #167
      00FF2E66H   LINE      CODE     ---       #168
      00FF2E90H   LINE      CODE     ---       #169
      00FF2E94H   LINE      CODE     ---       #170
      00FF2EF8H   LINE      CODE     ---       #171
      00FF2F14H   LINE      CODE     ---       #172
      00FF2F14H   LINE      CODE     ---       #173
      00FF2F1EH   LINE      CODE     ---       #174
      00FF2F1EH   LINE      CODE     ---       #175
      00FF2F3EH   LINE      CODE     ---       #176
      00FF2F62H   LINE      CODE     ---       #177
      00FF2F64H   LINE      CODE     ---       #178
      ---         BLOCKEND  ---      ---       LVL=0

      ---         MODULE    ---      ---       tm_stat

      ---         MODULE    ---      ---       ?C?FPADD
      00FF1700H   PUBLIC    CODE     ---       ?C?FPADD
      00FF16FDH   PUBLIC    CODE     ---       ?C?FPSUB

      ---         MODULE    ---      ---       ?C?FPMUL
      00FF17B8H   PUBLIC    CODE     ---       ?C?FPMUL

      ---         MODULE    ---      ---       ?C?FPDIV
      00FF1858H   PUBLIC    CODE     ---       ?C?FPDIV

L251 LINKER/LOCATER V4.66.93.0                                                        03/11/2025  16:09:00  PAGE 49


      ---         MODULE    ---      ---       ?C?FPCMP
      00FF18DBH   PUBLIC    CODE     ---       ?C?FPCMP
      00FF18D9H   PUBLIC    CODE     ---       ?C?FPCMP3

      ---         MODULE    ---      ---       ?C?FCAST
      00FF1929H   PUBLIC    CODE     NEAR LAB  ?C?FCASTC
      00FF1924H   PUBLIC    CODE     NEAR LAB  ?C?FCASTI
      00FF191FH   PUBLIC    CODE     NEAR LAB  ?C?FCASTL

      ---         MODULE    ---      ---       ?C?CASTF
      00FF195CH   PUBLIC    CODE     NEAR LAB  ?C?CASTF

      ---         MODULE    ---      ---       PRINTF
      000000E0H   PUBLIC    EDATA    ---       ?PRINTF?BYTE
      00FF1999H   PUBLIC    CODE     NEAR LAB  PRINTF

      ---         MODULE    ---      ---       SPRINTF
      00000041H   PUBLIC    EDATA    ---       ?SPRINTF?BYTE
      00FF19C5H   PUBLIC    CODE     NEAR LAB  SPRINTF

      ---         MODULE    ---      ---       EXP?_
      00FF1A1EH   PUBLIC    CODE     ---       EXP?_

      ---         MODULE    ---      ---       ?C?FPGETOPN
      00FF1A81H   PUBLIC    CODE     ---       ?C?FPGETOPN2
      00FF1ABEH   PUBLIC    CODE     ---       ?C?FPNANRESULT
      00FF1AC6H   PUBLIC    CODE     ---       ?C?FPOVERFLOW
      00FF1A9AH   PUBLIC    CODE     ---       ?C?FPRESULT
      00FF1AB0H   PUBLIC    CODE     ---       ?C?FPRESULT2
      00FF1AC3H   PUBLIC    CODE     ---       ?C?FPUNDERFLOW

      ---         MODULE    ---      ---       ?C?PRNFMT
      00FF1AFFH   PUBLIC    CODE     ---       ?C?PRNFMT

      ---         MODULE    ---      ---       ?C?FPSERIES
      00FF1F0EH   PUBLIC    CODE     ---       ?C?FP2SERIES
      00FF1F17H   PUBLIC    CODE     ---       ?C?FPSERIES

      ---         MODULE    ---      ---       ?C?FPCONVERT
      00FF1F49H   PUBLIC    CODE     ---       ?C?FPCONVERT
      00FF2001H   PUBLIC    CODE     ---       ?C?FPROUND

      ---         MODULE    ---      ---       ?C?FTNPWR
      00FF2074H   PUBLIC    CODE     ---       ?C?FTNPWR

      ---         MODULE    ---      ---       ?C_START
      00FF0000H   PUBLIC    CODE     ---       ?C?STARTUP
      00FF0000H   PUBLIC    CODE     ---       ?C_STARTUP

      ---         MODULE    ---      ---       ?C?INITEDATA
      00FF4ECCH   PUBLIC    CODE     ---       ?C?INITEDATA

      ---         MODULE    ---      ---       ?C?INITHDATA
      00FF4EF5H   PUBLIC    CODE     ---       ?C?INITHDATA

      ---         MODULE    ---      ---       ?C?SIDIV
      00FF20ABH   PUBLIC    CODE     ---       ?C?SIDIV

      ---         MODULE    ---      ---       ?C?LMUL
      00FF20DDH   PUBLIC    CODE     ---       ?C?LMUL

      ---         MODULE    ---      ---       ?C?LIMUL
      00FF20EEH   PUBLIC    CODE     ---       ?C?LIMUL

      ---         MODULE    ---      ---       ?C?ULDIV
L251 LINKER/LOCATER V4.66.93.0                                                        03/11/2025  16:09:00  PAGE 50


      00FF20F9H   PUBLIC    CODE     NEAR LAB  ?C?ULDIV
      00FF20F7H   PUBLIC    CODE     NEAR LAB  ?C?ULIDIV

      ---         MODULE    ---      ---       ?C?SLDIV
      00FF214AH   PUBLIC    CODE     NEAR LAB  ?C?SLDIV

      ---         MODULE    ---      ---       ?C?BMOVENP
      00FF2180H   PUBLIC    CODE     ---       ?C?BMOVENP
      00FF217EH   PUBLIC    CODE     ---       ?C?BMOVENP8

      ---         MODULE    ---      ---       PUTCHAR
      00FF21A3H   PUBLIC    CODE     NEAR LAB  PUTCHAR

      ---         MODULE    ---      ---       STRLEN
      00FF5486H   PUBLIC    CODE     ---       strlen?_

      ---         MODULE    ---      ---       memcpy
      00FF52E5H   PUBLIC    CODE     ---       memcpy?_

      ---         MODULE    ---      ---       memset
      00FF53C3H   PUBLIC    CODE     ---       memset?_

      ---         MODULE    ---      ---       malloc
      00FF4F94H   PUBLIC    CODE     ---       malloc

      ---         MODULE    ---      ---       free

      ---         MODULE    ---      ---       ?C?INITEDATA_END
      00FF6986H   PUBLIC    HCONST   WORD      ?C?INITEDATA_END

      ---         MODULE    ---      ---       ?C?INITHDATA_END
      00FF5F87H   PUBLIC    HCONST   WORD      ?C?INITHDATA_END

      ---         MODULE    ---      ---       mdefine
      0000025EH   PUBLIC    HDATA    ---       __mp__

Program Size: data=8.0 edata+hdata=602 xdata=5483 const=5473 code=21653
L251 RUN COMPLETE.  0 WARNING(S),  0 ERROR(S)
